---
triple:          'arm64-apple-darwin'
binary-path:     '/Users/sunhigh913/Desktop/SDL2_project/src/entity'
relocations:
  - { offsetInCU: 0x52, offset: 0x52, size: 0x8, addend: 0x0, symName: _vec, symObjAddr: 0x30A10, symBinAddr: 0x10000C000, symSize: 0x0 }
  - { offsetInCU: 0x4EC1, offset: 0x4EC1, size: 0x8, addend: 0x0, symName: __ZNSt3__124__put_character_sequenceB7v160006IcNS_11char_traitsIcEEEERNS_13basic_ostreamIT_T0_EES7_PKS4_m, symObjAddr: 0x3290, symBinAddr: 0x100004814, symSize: 0x1EC }
  - { offsetInCU: 0x6A1D, offset: 0x6A1D, size: 0x8, addend: 0x0, symName: __ZNSt3__1lsB7v160006INS_11char_traitsIcEEEERNS_13basic_ostreamIcT_EES6_PKc, symObjAddr: 0x55C, symBinAddr: 0x100001AE0, symSize: 0x48 }
  - { offsetInCU: 0x6A63, offset: 0x6A63, size: 0x8, addend: 0x0, symName: __ZNSt3__14endlB7v160006IcNS_11char_traitsIcEEEERNS_13basic_ostreamIT_T0_EES7_, symObjAddr: 0x5D0, symBinAddr: 0x100001B54, symSize: 0x58 }
  - { offsetInCU: 0x6AA3, offset: 0x6AA3, size: 0x8, addend: 0x0, symName: __ZNSt3__119__debug_db_insert_cB7v160006INS_6vectorI4MathNS_9allocatorIS2_EEEEEEvPT_, symObjAddr: 0x13A8, symBinAddr: 0x10000292C, symSize: 0x10 }
  - { offsetInCU: 0x6AD4, offset: 0x6AD4, size: 0x8, addend: 0x0, symName: __ZNSt3__118__debug_db_erase_cB7v160006INS_6vectorI4MathNS_9allocatorIS2_EEEEEEvPT_, symObjAddr: 0x1764, symBinAddr: 0x100002CE8, symSize: 0x10 }
  - { offsetInCU: 0x6B05, offset: 0x6B05, size: 0x8, addend: 0x0, symName: __ZNSt3__112__to_addressB7v160006I4MathEEPT_S3_, symObjAddr: 0x18A8, symBinAddr: 0x100002E2C, symSize: 0x14 }
  - { offsetInCU: 0x6B3A, offset: 0x6B3A, size: 0x8, addend: 0x0, symName: __ZNSt3__119__libcpp_deallocateB7v160006EPvmm, symObjAddr: 0x19C8, symBinAddr: 0x100002F4C, symSize: 0x30 }
  - { offsetInCU: 0x6B82, offset: 0x6B82, size: 0x8, addend: 0x0, symName: __ZNSt3__127__do_deallocate_handle_sizeB7v160006IJEEEvPvmDpT_, symObjAddr: 0x19F8, symBinAddr: 0x100002F7C, symSize: 0x28 }
  - { offsetInCU: 0x6BC0, offset: 0x6BC0, size: 0x8, addend: 0x0, symName: __ZNSt3__124__libcpp_operator_deleteB7v160006IJPvEEEvDpT_, symObjAddr: 0x1A20, symBinAddr: 0x100002FA4, symSize: 0x24 }
  - { offsetInCU: 0x6BF5, offset: 0x6BF5, size: 0x8, addend: 0x0, symName: __ZNSt3__112__to_addressB7v160006IKcEEPT_S3_, symObjAddr: 0x1B04, symBinAddr: 0x100003088, symSize: 0x14 }
  - { offsetInCU: 0x6C5D, offset: 0x6C5D, size: 0x8, addend: 0x0, symName: __ZNSt3__122__make_exception_guardB7v160006INS_6vectorIiNS_9allocatorIiEEE16__destroy_vectorEEENS_28__exception_guard_exceptionsIT_EES7_, symObjAddr: 0x1DA0, symBinAddr: 0x100003324, symSize: 0x40 }
  - { offsetInCU: 0x6C92, offset: 0x6C92, size: 0x8, addend: 0x0, symName: __ZNSt3__119__debug_db_insert_cB7v160006INS_6vectorIiNS_9allocatorIiEEEEEEvPT_, symObjAddr: 0x1E14, symBinAddr: 0x100003398, symSize: 0x10 }
  - { offsetInCU: 0x6CC3, offset: 0x6CC3, size: 0x8, addend: 0x0, symName: __ZNSt3__119__allocate_at_leastB7v160006INS_9allocatorIiEEEENS_19__allocation_resultINS_16allocator_traitsIT_E7pointerEEERS5_m, symObjAddr: 0x21B0, symBinAddr: 0x100003734, symSize: 0x40 }
  - { offsetInCU: 0x6D06, offset: 0x6D06, size: 0x8, addend: 0x0, symName: __ZNSt3__13minB7v160006ImEERKT_S3_S3_, symObjAddr: 0x22EC, symBinAddr: 0x100003870, symSize: 0x2C }
  - { offsetInCU: 0x6F4A, offset: 0x6F4A, size: 0x8, addend: 0x0, symName: __ZNSt3__13minB7v160006ImNS_6__lessImmEEEERKT_S5_S5_T0_, symObjAddr: 0x2378, symBinAddr: 0x1000038FC, symSize: 0x54 }
  - { offsetInCU: 0x6FDF, offset: 0x6FDF, size: 0x8, addend: 0x0, symName: __ZNSt3__120__throw_length_errorB7v160006EPKc, symObjAddr: 0x2454, symBinAddr: 0x1000039D8, symSize: 0x64 }
  - { offsetInCU: 0x7007, offset: 0x7007, size: 0x8, addend: 0x0, symName: __ZNSt3__117__libcpp_allocateB7v160006Emm, symObjAddr: 0x25C4, symBinAddr: 0x100003B48, symSize: 0x28 }
  - { offsetInCU: 0x7044, offset: 0x7044, size: 0x8, addend: 0x0, symName: __ZNSt3__121__libcpp_operator_newB7v160006IJmEEEPvDpT_, symObjAddr: 0x25EC, symBinAddr: 0x100003B70, symSize: 0x24 }
  - { offsetInCU: 0x707D, offset: 0x707D, size: 0x8, addend: 0x0, symName: __ZNSt3__112__to_addressB7v160006IiEEPT_S2_, symObjAddr: 0x2708, symBinAddr: 0x100003C8C, symSize: 0x14 }
  - { offsetInCU: 0x70B2, offset: 0x70B2, size: 0x8, addend: 0x0, symName: __ZNSt3__130__uninitialized_allocator_copyB7v160006INS_9allocatorIiEEiiLPv0EEEPT0_RT_PKS4_S9_S5_, symObjAddr: 0x27B8, symBinAddr: 0x100003D3C, symSize: 0x38 }
  - { offsetInCU: 0x712A, offset: 0x712A, size: 0x8, addend: 0x0, symName: __ZNSt3__14copyB7v160006IPKiPiEET0_T_S5_S4_, symObjAddr: 0x2860, symBinAddr: 0x100003DE4, symSize: 0x40 }
  - { offsetInCU: 0x7184, offset: 0x7184, size: 0x8, addend: 0x0, symName: __ZNSt3__16__copyB7v160006INS_17_ClassicAlgPolicyEPKiS3_PiEENS_4pairIT0_T2_EES6_T1_S7_, symObjAddr: 0x28A0, symBinAddr: 0x100003E24, symSize: 0x44 }
  - { offsetInCU: 0x71F0, offset: 0x71F0, size: 0x8, addend: 0x0, symName: __ZNSt3__123__dispatch_copy_or_moveB7v160006INS_17_ClassicAlgPolicyENS_11__copy_loopIS1_EENS_14__copy_trivialEPKiS6_PiEENS_4pairIT2_T4_EES9_T3_SA_, symObjAddr: 0x28E4, symBinAddr: 0x100003E68, symSize: 0x44 }
  - { offsetInCU: 0x726E, offset: 0x726E, size: 0x8, addend: 0x0, symName: __ZNSt3__121__unwrap_and_dispatchB7v160006INS_10__overloadINS_11__copy_loopINS_17_ClassicAlgPolicyEEENS_14__copy_trivialEEEPKiS8_PiLi0EEENS_4pairIT0_T2_EESB_T1_SC_, symObjAddr: 0x2928, symBinAddr: 0x100003EAC, symSize: 0xB4 }
  - { offsetInCU: 0x72FC, offset: 0x72FC, size: 0x8, addend: 0x0, symName: __ZNSt3__114__unwrap_rangeB7v160006IPKiS2_EENS_4pairIT0_S4_EET_S6_, symObjAddr: 0x29DC, symBinAddr: 0x100003F60, symSize: 0x60 }
  - { offsetInCU: 0x7491, offset: 0x7491, size: 0x8, addend: 0x0, symName: __ZNSt3__113__unwrap_iterB7v160006IPiNS_18__unwrap_iter_implIS1_Lb1EEELi0EEEDTclsrT0_8__unwrapclsr3stdE7declvalIT_EEEES5_, symObjAddr: 0x2A84, symBinAddr: 0x100004008, symSize: 0x24 }
  - { offsetInCU: 0x74D5, offset: 0x74D5, size: 0x8, addend: 0x0, symName: __ZNSt3__19make_pairB7v160006IPKiPiEENS_4pairINS_18__unwrap_ref_decayIT_E4typeENS5_IT0_E4typeEEEOS6_OS9_, symObjAddr: 0x2AA8, symBinAddr: 0x10000402C, symSize: 0x38 }
  - { offsetInCU: 0x7524, offset: 0x7524, size: 0x8, addend: 0x0, symName: __ZNSt3__114__rewrap_rangeB7v160006IPKiS2_EET_S3_T0_, symObjAddr: 0x2AE0, symBinAddr: 0x100004064, symSize: 0x2C }
  - { offsetInCU: 0x7570, offset: 0x7570, size: 0x8, addend: 0x0, symName: __ZNSt3__113__rewrap_iterB7v160006IPiS1_NS_18__unwrap_iter_implIS1_Lb1EEEEET_S4_T0_, symObjAddr: 0x2B0C, symBinAddr: 0x100004090, symSize: 0x3C }
  - { offsetInCU: 0x75C5, offset: 0x75C5, size: 0x8, addend: 0x0, symName: __ZNSt3__19make_pairB7v160006IPKiS2_EENS_4pairINS_18__unwrap_ref_decayIT_E4typeENS4_IT0_E4typeEEEOS5_OS8_, symObjAddr: 0x2B48, symBinAddr: 0x1000040CC, symSize: 0x38 }
  - { offsetInCU: 0x7614, offset: 0x7614, size: 0x8, addend: 0x0, symName: __ZNSt3__113__unwrap_iterB7v160006IPKiNS_18__unwrap_iter_implIS2_Lb1EEELi0EEEDTclsrT0_8__unwrapclsr3stdE7declvalIT_EEEES6_, symObjAddr: 0x2B80, symBinAddr: 0x100004104, symSize: 0x24 }
  - { offsetInCU: 0x777F, offset: 0x777F, size: 0x8, addend: 0x0, symName: __ZNSt3__112__to_addressB7v160006IKiEEPT_S3_, symObjAddr: 0x2C38, symBinAddr: 0x1000041BC, symSize: 0x14 }
  - { offsetInCU: 0x77B4, offset: 0x77B4, size: 0x8, addend: 0x0, symName: __ZNSt3__119__copy_trivial_implB7v160006IKiiEENS_4pairIPT_PT0_EES4_S4_S6_, symObjAddr: 0x2C4C, symBinAddr: 0x1000041D0, symSize: 0x84 }
  - { offsetInCU: 0x781C, offset: 0x781C, size: 0x8, addend: 0x0, symName: __ZNSt3__19make_pairB7v160006IRPKiPiEENS_4pairINS_18__unwrap_ref_decayIT_E4typeENS6_IT0_E4typeEEEOS7_OSA_, symObjAddr: 0x2CD0, symBinAddr: 0x100004254, symSize: 0x38 }
  - { offsetInCU: 0x78BE, offset: 0x78BE, size: 0x8, addend: 0x0, symName: __ZNSt3__113__rewrap_iterB7v160006IPKiS2_NS_18__unwrap_iter_implIS2_Lb1EEEEET_S5_T0_, symObjAddr: 0x2E0C, symBinAddr: 0x100004390, symSize: 0x3C }
  - { offsetInCU: 0x7913, offset: 0x7913, size: 0x8, addend: 0x0, symName: __ZNSt3__118__debug_db_erase_cB7v160006INS_6vectorIiNS_9allocatorIiEEEEEEvPT_, symObjAddr: 0x30AC, symBinAddr: 0x100004630, symSize: 0x10 }
  - { offsetInCU: 0x7944, offset: 0x7944, size: 0x8, addend: 0x0, symName: __ZNSt3__116__pad_and_outputB7v160006IcNS_11char_traitsIcEEEENS_19ostreambuf_iteratorIT_T0_EES6_PKS4_S8_S8_RNS_8ios_baseES4_, symObjAddr: 0x34CC, symBinAddr: 0x100004A50, symSize: 0x240 }
  - { offsetInCU: 0x7A13, offset: 0x7A13, size: 0x8, addend: 0x0, symName: __ZNSt3__119__debug_db_insert_cB7v160006INS_12basic_stringIcNS_11char_traitsIcEENS_9allocatorIcEEEEEEvPT_, symObjAddr: 0x3958, symBinAddr: 0x100004EDC, symSize: 0x10 }
  - { offsetInCU: 0x7A44, offset: 0x7A44, size: 0x8, addend: 0x0, symName: __ZNSt3__19use_facetB7v160006INS_5ctypeIcEEEERKT_RKNS_6localeE, symObjAddr: 0x3B68, symBinAddr: 0x1000050EC, symSize: 0x2C }
  - { offsetInCU: 0x7F13, offset: 0x7F13, size: 0x8, addend: 0x0, symName: __ZNSt3__118__constexpr_strlenB7v160006EPKc, symObjAddr: 0x3C00, symBinAddr: 0x100005184, symSize: 0x24 }
  - { offsetInCU: 0x8252, offset: 0x8252, size: 0x8, addend: 0x0, symName: __ZSt28__throw_bad_array_new_lengthB7v160006v, symObjAddr: 0x2590, symBinAddr: 0x100003B14, symSize: 0x34 }
  - { offsetInCU: 0xB354, offset: 0xB354, size: 0x8, addend: 0x0, symName: __ZN4TextC2EP12SDL_RendererNSt3__112basic_stringIcNS2_11char_traitsIcEENS2_9allocatorIcEEEES8_ffffi, symObjAddr: 0x0, symBinAddr: 0x100001584, symSize: 0x2B4 }
  - { offsetInCU: 0xB406, offset: 0xB406, size: 0x8, addend: 0x0, symName: __ZN6EntityC2Ev, symObjAddr: 0x2B4, symBinAddr: 0x100001838, symSize: 0x24 }
  - { offsetInCU: 0xB430, offset: 0xB430, size: 0x8, addend: 0x0, symName: __ZNKSt3__112basic_stringIcNS_11char_traitsIcEENS_9allocatorIcEEE5c_strB7v160006Ev, symObjAddr: 0x2D8, symBinAddr: 0x10000185C, symSize: 0x24 }
  - { offsetInCU: 0xB456, offset: 0xB456, size: 0x8, addend: 0x0, symName: __ZN4TextC1EP12SDL_RendererNSt3__112basic_stringIcNS2_11char_traitsIcEENS2_9allocatorIcEEEES8_ffffi, symObjAddr: 0x2FC, symBinAddr: 0x100001880, symSize: 0x6C }
  - { offsetInCU: 0xB4F3, offset: 0xB4F3, size: 0x8, addend: 0x0, symName: __ZN4Text7displayEbi, symObjAddr: 0x368, symBinAddr: 0x1000018EC, symSize: 0x6C }
  - { offsetInCU: 0xB536, offset: 0xB536, size: 0x8, addend: 0x0, symName: __ZN4Text7releaseEv, symObjAddr: 0x3D4, symBinAddr: 0x100001958, symSize: 0x38 }
  - { offsetInCU: 0xB55D, offset: 0xB55D, size: 0x8, addend: 0x0, symName: __ZN4TextD2Ev, symObjAddr: 0x40C, symBinAddr: 0x100001990, symSize: 0x6C }
  - { offsetInCU: 0xB588, offset: 0xB588, size: 0x8, addend: 0x0, symName: __ZN4TextD1Ev, symObjAddr: 0x484, symBinAddr: 0x100001A08, symSize: 0x2C }
  - { offsetInCU: 0xB5B3, offset: 0xB5B3, size: 0x8, addend: 0x0, symName: __ZNSt3__16vectorIiNS_9allocatorIiEEEC1B7v160006ESt16initializer_listIiE, symObjAddr: 0x4B0, symBinAddr: 0x100001A34, symSize: 0x3C }
  - { offsetInCU: 0xB5EE, offset: 0xB5EE, size: 0x8, addend: 0x0, symName: __ZNSt3__16vectorIiNS_9allocatorIiEEED1B7v160006Ev, symObjAddr: 0x4EC, symBinAddr: 0x100001A70, symSize: 0x2C }
  - { offsetInCU: 0xB617, offset: 0xB617, size: 0x8, addend: 0x0, symName: __Z13timerCallbackjPv, symObjAddr: 0x518, symBinAddr: 0x100001A9C, symSize: 0x44 }
  - { offsetInCU: 0xB652, offset: 0xB652, size: 0x8, addend: 0x0, symName: __ZNSt3__113basic_ostreamIcNS_11char_traitsIcEEElsB7v160006EPFRS3_S4_E, symObjAddr: 0x5A4, symBinAddr: 0x100001B28, symSize: 0x2C }
  - { offsetInCU: 0xB686, offset: 0xB686, size: 0x8, addend: 0x0, symName: __Z4showv, symObjAddr: 0x628, symBinAddr: 0x100001BAC, symSize: 0x24 }
  - { offsetInCU: 0xB6A0, offset: 0xB6A0, size: 0x8, addend: 0x0, symName: _main, symObjAddr: 0x64C, symBinAddr: 0x100001BD0, symSize: 0x670 }
  - { offsetInCU: 0xB765, offset: 0xB765, size: 0x8, addend: 0x0, symName: __ZNSt3__112basic_stringIcNS_11char_traitsIcEENS_9allocatorIcEEEC1B7v160006IDnEEPKc, symObjAddr: 0xCBC, symBinAddr: 0x100002240, symSize: 0x34 }
  - { offsetInCU: 0xC7FD, offset: 0xC7FD, size: 0x8, addend: 0x0, symName: __ZN6ButtonC1EP12SDL_RendererNSt3__112basic_stringIcNS2_11char_traitsIcEENS2_9allocatorIcEEEES8_S8_iiiiP9SDL_EventPFvvE, symObjAddr: 0xCF0, symBinAddr: 0x100002274, symSize: 0x98 }
  - { offsetInCU: 0xCC55, offset: 0xCC55, size: 0x8, addend: 0x0, symName: __ZN6PlayerC1EP12SDL_RendererNSt3__112basic_stringIcNS2_11char_traitsIcEENS2_9allocatorIcEEEEiiiiP9SDL_Eventf, symObjAddr: 0xD88, symBinAddr: 0x10000230C, symSize: 0x6C }
  - { offsetInCU: 0xCCF0, offset: 0xCCF0, size: 0x8, addend: 0x0, symName: __ZN6WeaponD1Ev, symObjAddr: 0xDF4, symBinAddr: 0x100002378, symSize: 0x2C }
  - { offsetInCU: 0xCD1C, offset: 0xCD1C, size: 0x8, addend: 0x0, symName: __ZN6PlayerD1Ev, symObjAddr: 0xE20, symBinAddr: 0x1000023A4, symSize: 0x2C }
  - { offsetInCU: 0xCD48, offset: 0xCD48, size: 0x8, addend: 0x0, symName: __ZN6ButtonC2EP12SDL_RendererNSt3__112basic_stringIcNS2_11char_traitsIcEENS2_9allocatorIcEEEES8_S8_iiiiP9SDL_EventPFvvE, symObjAddr: 0xE4C, symBinAddr: 0x1000023D0, symSize: 0x178 }
  - { offsetInCU: 0xCE02, offset: 0xCE02, size: 0x8, addend: 0x0, symName: __ZN6PlayerC2EP12SDL_RendererNSt3__112basic_stringIcNS2_11char_traitsIcEENS2_9allocatorIcEEEEiiiiP9SDL_Eventf, symObjAddr: 0xFC4, symBinAddr: 0x100002548, symSize: 0xF4 }
  - { offsetInCU: 0xCE9D, offset: 0xCE9D, size: 0x8, addend: 0x0, symName: __ZN3MobC2EP12SDL_RendererNSt3__112basic_stringIcNS2_11char_traitsIcEENS2_9allocatorIcEEEEiiiiP9SDL_Eventi, symObjAddr: 0x10B8, symBinAddr: 0x10000263C, symSize: 0x104 }
  - { offsetInCU: 0xCF38, offset: 0xCF38, size: 0x8, addend: 0x0, symName: __ZNSt3__16vectorI4MathNS_9allocatorIS1_EEEC1B7v160006Ev, symObjAddr: 0x11BC, symBinAddr: 0x100002740, symSize: 0x2C }
  - { offsetInCU: 0xCF62, offset: 0xCF62, size: 0x8, addend: 0x0, symName: __ZN5SolidC2EP12SDL_RendererNSt3__112basic_stringIcNS2_11char_traitsIcEENS2_9allocatorIcEEEEiiiiP9SDL_Event, symObjAddr: 0x11E8, symBinAddr: 0x10000276C, symSize: 0x12C }
  - { offsetInCU: 0xCFEF, offset: 0xCFEF, size: 0x8, addend: 0x0, symName: __ZNSt3__16vectorI4MathNS_9allocatorIS1_EEEC2B7v160006Ev, symObjAddr: 0x1314, symBinAddr: 0x100002898, symSize: 0x58 }
  - { offsetInCU: 0xD023, offset: 0xD023, size: 0x8, addend: 0x0, symName: __ZNSt3__117__compressed_pairIP4MathNS_9allocatorIS1_EEEC1B7v160006IDnNS_18__default_init_tagEEEOT_OT0_, symObjAddr: 0x136C, symBinAddr: 0x1000028F0, symSize: 0x3C }
  - { offsetInCU: 0xD07B, offset: 0xD07B, size: 0x8, addend: 0x0, symName: __ZNSt3__117__compressed_pairIP4MathNS_9allocatorIS1_EEEC2B7v160006IDnNS_18__default_init_tagEEEOT_OT0_, symObjAddr: 0x13B8, symBinAddr: 0x10000293C, symSize: 0x40 }
  - { offsetInCU: 0xD0D3, offset: 0xD0D3, size: 0x8, addend: 0x0, symName: __ZNSt3__122__compressed_pair_elemIP4MathLi0ELb0EEC2B7v160006IDnvEEOT_, symObjAddr: 0x13F8, symBinAddr: 0x10000297C, symSize: 0x1C }
  - { offsetInCU: 0xD115, offset: 0xD115, size: 0x8, addend: 0x0, symName: __ZNSt3__122__compressed_pair_elemINS_9allocatorI4MathEELi1ELb1EEC2B7v160006ENS_18__default_init_tagE, symObjAddr: 0x1414, symBinAddr: 0x100002998, symSize: 0x2C }
  - { offsetInCU: 0xD14A, offset: 0xD14A, size: 0x8, addend: 0x0, symName: __ZNSt3__19allocatorI4MathEC2B7v160006Ev, symObjAddr: 0x1440, symBinAddr: 0x1000029C4, symSize: 0x2C }
  - { offsetInCU: 0xD174, offset: 0xD174, size: 0x8, addend: 0x0, symName: __ZNSt3__116__non_trivial_ifILb1ENS_9allocatorI4MathEEEC2B7v160006Ev, symObjAddr: 0x146C, symBinAddr: 0x1000029F0, symSize: 0x14 }
  - { offsetInCU: 0xD19E, offset: 0xD19E, size: 0x8, addend: 0x0, symName: __ZN6WeaponD2Ev, symObjAddr: 0x1480, symBinAddr: 0x100002A04, symSize: 0x2C }
  - { offsetInCU: 0xD1CA, offset: 0xD1CA, size: 0x8, addend: 0x0, symName: __ZN5SolidD2Ev, symObjAddr: 0x14AC, symBinAddr: 0x100002A30, symSize: 0x2C }
  - { offsetInCU: 0xD1F6, offset: 0xD1F6, size: 0x8, addend: 0x0, symName: __ZN6PlayerD2Ev, symObjAddr: 0x14D8, symBinAddr: 0x100002A5C, symSize: 0x48 }
  - { offsetInCU: 0xD222, offset: 0xD222, size: 0x8, addend: 0x0, symName: __ZNSt3__16vectorI4MathNS_9allocatorIS1_EEED1B7v160006Ev, symObjAddr: 0x1520, symBinAddr: 0x100002AA4, symSize: 0x2C }
  - { offsetInCU: 0xD24C, offset: 0xD24C, size: 0x8, addend: 0x0, symName: __ZN3MobD2Ev, symObjAddr: 0x154C, symBinAddr: 0x100002AD0, symSize: 0x2C }
  - { offsetInCU: 0xD278, offset: 0xD278, size: 0x8, addend: 0x0, symName: __ZNSt3__16vectorI4MathNS_9allocatorIS1_EEED2B7v160006Ev, symObjAddr: 0x1578, symBinAddr: 0x100002AFC, symSize: 0x44 }
  - { offsetInCU: 0xD2A2, offset: 0xD2A2, size: 0x8, addend: 0x0, symName: __ZNSt3__16vectorI4MathNS_9allocatorIS1_EEE16__destroy_vectorC1ERS4_, symObjAddr: 0x15BC, symBinAddr: 0x100002B40, symSize: 0x34 }
  - { offsetInCU: 0xD2DB, offset: 0xD2DB, size: 0x8, addend: 0x0, symName: __ZNSt3__16vectorI4MathNS_9allocatorIS1_EEE16__destroy_vectorclB7v160006Ev, symObjAddr: 0x15F0, symBinAddr: 0x100002B74, symSize: 0x9C }
  - { offsetInCU: 0xD301, offset: 0xD301, size: 0x8, addend: 0x0, symName: __ZNSt3__16vectorI4MathNS_9allocatorIS1_EEE16__destroy_vectorC2ERS4_, symObjAddr: 0x168C, symBinAddr: 0x100002C10, symSize: 0x20 }
  - { offsetInCU: 0xD33A, offset: 0xD33A, size: 0x8, addend: 0x0, symName: __ZNKSt3__16vectorI4MathNS_9allocatorIS1_EEE17__annotate_deleteB7v160006Ev, symObjAddr: 0x16AC, symBinAddr: 0x100002C30, symSize: 0xB8 }
  - { offsetInCU: 0xD360, offset: 0xD360, size: 0x8, addend: 0x0, symName: __ZNSt3__16vectorI4MathNS_9allocatorIS1_EEE7__clearB7v160006Ev, symObjAddr: 0x1774, symBinAddr: 0x100002CF8, symSize: 0x28 }
  - { offsetInCU: 0xD386, offset: 0xD386, size: 0x8, addend: 0x0, symName: __ZNSt3__116allocator_traitsINS_9allocatorI4MathEEE10deallocateB7v160006ERS3_PS2_m, symObjAddr: 0x179C, symBinAddr: 0x100002D20, symSize: 0x34 }
  - { offsetInCU: 0xD3C8, offset: 0xD3C8, size: 0x8, addend: 0x0, symName: __ZNSt3__16vectorI4MathNS_9allocatorIS1_EEE7__allocB7v160006Ev, symObjAddr: 0x17D0, symBinAddr: 0x100002D54, symSize: 0x28 }
  - { offsetInCU: 0xD3EE, offset: 0xD3EE, size: 0x8, addend: 0x0, symName: __ZNKSt3__16vectorI4MathNS_9allocatorIS1_EEE8capacityB7v160006Ev, symObjAddr: 0x17F8, symBinAddr: 0x100002D7C, symSize: 0x40 }
  - { offsetInCU: 0xD414, offset: 0xD414, size: 0x8, addend: 0x0, symName: __ZNKSt3__16vectorI4MathNS_9allocatorIS1_EEE31__annotate_contiguous_containerB7v160006EPKvS6_S6_S6_, symObjAddr: 0x1838, symBinAddr: 0x100002DBC, symSize: 0x20 }
  - { offsetInCU: 0xD466, offset: 0xD466, size: 0x8, addend: 0x0, symName: __ZNKSt3__16vectorI4MathNS_9allocatorIS1_EEE4dataB7v160006Ev, symObjAddr: 0x1858, symBinAddr: 0x100002DDC, symSize: 0x28 }
  - { offsetInCU: 0xD48C, offset: 0xD48C, size: 0x8, addend: 0x0, symName: __ZNKSt3__16vectorI4MathNS_9allocatorIS1_EEE4sizeB7v160006Ev, symObjAddr: 0x1880, symBinAddr: 0x100002E04, symSize: 0x28 }
  - { offsetInCU: 0xD4B2, offset: 0xD4B2, size: 0x8, addend: 0x0, symName: __ZNSt3__16vectorI4MathNS_9allocatorIS1_EEE22__base_destruct_at_endB7v160006EPS1_, symObjAddr: 0x18BC, symBinAddr: 0x100002E40, symSize: 0x8C }
  - { offsetInCU: 0xD4F6, offset: 0xD4F6, size: 0x8, addend: 0x0, symName: __ZNSt3__116allocator_traitsINS_9allocatorI4MathEEE7destroyB7v160006IS2_vEEvRS3_PT_, symObjAddr: 0x1948, symBinAddr: 0x100002ECC, symSize: 0x2C }
  - { offsetInCU: 0xD533, offset: 0xD533, size: 0x8, addend: 0x0, symName: __ZNSt3__19allocatorI4MathE7destroyB7v160006EPS1_, symObjAddr: 0x1974, symBinAddr: 0x100002EF8, symSize: 0x14 }
  - { offsetInCU: 0xD567, offset: 0xD567, size: 0x8, addend: 0x0, symName: __ZNSt3__19allocatorI4MathE10deallocateB7v160006EPS1_m, symObjAddr: 0x1988, symBinAddr: 0x100002F0C, symSize: 0x40 }
  - { offsetInCU: 0xD5A9, offset: 0xD5A9, size: 0x8, addend: 0x0, symName: __ZNSt3__117__compressed_pairIP4MathNS_9allocatorIS1_EEE6secondB7v160006Ev, symObjAddr: 0x1A44, symBinAddr: 0x100002FC8, symSize: 0x24 }
  - { offsetInCU: 0xD5CF, offset: 0xD5CF, size: 0x8, addend: 0x0, symName: __ZNSt3__122__compressed_pair_elemINS_9allocatorI4MathEELi1ELb1EE5__getB7v160006Ev, symObjAddr: 0x1A68, symBinAddr: 0x100002FEC, symSize: 0x14 }
  - { offsetInCU: 0xD5F5, offset: 0xD5F5, size: 0x8, addend: 0x0, symName: __ZNKSt3__16vectorI4MathNS_9allocatorIS1_EEE9__end_capB7v160006Ev, symObjAddr: 0x1A7C, symBinAddr: 0x100003000, symSize: 0x28 }
  - { offsetInCU: 0xD61B, offset: 0xD61B, size: 0x8, addend: 0x0, symName: __ZNKSt3__117__compressed_pairIP4MathNS_9allocatorIS1_EEE5firstB7v160006Ev, symObjAddr: 0x1AA4, symBinAddr: 0x100003028, symSize: 0x24 }
  - { offsetInCU: 0xD641, offset: 0xD641, size: 0x8, addend: 0x0, symName: __ZNKSt3__122__compressed_pair_elemIP4MathLi0ELb0EE5__getB7v160006Ev, symObjAddr: 0x1AC8, symBinAddr: 0x10000304C, symSize: 0x14 }
  - { offsetInCU: 0xD667, offset: 0xD667, size: 0x8, addend: 0x0, symName: __ZNKSt3__112basic_stringIcNS_11char_traitsIcEENS_9allocatorIcEEE4dataB7v160006Ev, symObjAddr: 0x1ADC, symBinAddr: 0x100003060, symSize: 0x28 }
  - { offsetInCU: 0xD68D, offset: 0xD68D, size: 0x8, addend: 0x0, symName: __ZNKSt3__112basic_stringIcNS_11char_traitsIcEENS_9allocatorIcEEE13__get_pointerB7v160006Ev, symObjAddr: 0x1B18, symBinAddr: 0x10000309C, symSize: 0x54 }
  - { offsetInCU: 0xD6B3, offset: 0xD6B3, size: 0x8, addend: 0x0, symName: __ZNKSt3__112basic_stringIcNS_11char_traitsIcEENS_9allocatorIcEEE9__is_longB7v160006Ev, symObjAddr: 0x1B6C, symBinAddr: 0x1000030F0, symSize: 0x38 }
  - { offsetInCU: 0xD6D9, offset: 0xD6D9, size: 0x8, addend: 0x0, symName: __ZNKSt3__112basic_stringIcNS_11char_traitsIcEENS_9allocatorIcEEE18__get_long_pointerB7v160006Ev, symObjAddr: 0x1BA4, symBinAddr: 0x100003128, symSize: 0x28 }
  - { offsetInCU: 0xD6FF, offset: 0xD6FF, size: 0x8, addend: 0x0, symName: __ZNKSt3__112basic_stringIcNS_11char_traitsIcEENS_9allocatorIcEEE19__get_short_pointerB7v160006Ev, symObjAddr: 0x1BCC, symBinAddr: 0x100003150, symSize: 0x28 }
  - { offsetInCU: 0xD725, offset: 0xD725, size: 0x8, addend: 0x0, symName: __ZNKSt3__117__compressed_pairINS_12basic_stringIcNS_11char_traitsIcEENS_9allocatorIcEEE5__repES5_E5firstB7v160006Ev, symObjAddr: 0x1BF4, symBinAddr: 0x100003178, symSize: 0x24 }
  - { offsetInCU: 0xD74B, offset: 0xD74B, size: 0x8, addend: 0x0, symName: __ZNKSt3__122__compressed_pair_elemINS_12basic_stringIcNS_11char_traitsIcEENS_9allocatorIcEEE5__repELi0ELb0EE5__getB7v160006Ev, symObjAddr: 0x1C18, symBinAddr: 0x10000319C, symSize: 0x14 }
  - { offsetInCU: 0xD771, offset: 0xD771, size: 0x8, addend: 0x0, symName: __ZNSt3__114pointer_traitsIPKcE10pointer_toB7v160006ERS1_, symObjAddr: 0x1C2C, symBinAddr: 0x1000031B0, symSize: 0x14 }
  - { offsetInCU: 0xD794, offset: 0xD794, size: 0x8, addend: 0x0, symName: __ZNSt3__16vectorIiNS_9allocatorIiEEEC2B7v160006ESt16initializer_listIiE, symObjAddr: 0x1C40, symBinAddr: 0x1000031C4, symSize: 0x124 }
  - { offsetInCU: 0xD7E5, offset: 0xD7E5, size: 0x8, addend: 0x0, symName: __ZNSt3__117__compressed_pairIPiNS_9allocatorIiEEEC1B7v160006IDnNS_18__default_init_tagEEEOT_OT0_, symObjAddr: 0x1D64, symBinAddr: 0x1000032E8, symSize: 0x3C }
  - { offsetInCU: 0xD83D, offset: 0xD83D, size: 0x8, addend: 0x0, symName: __ZNSt3__16vectorIiNS_9allocatorIiEEE16__destroy_vectorC1ERS3_, symObjAddr: 0x1DE0, symBinAddr: 0x100003364, symSize: 0x34 }
  - { offsetInCU: 0xD876, offset: 0xD876, size: 0x8, addend: 0x0, symName: __ZNKSt16initializer_listIiE4sizeB7v160006Ev, symObjAddr: 0x1E24, symBinAddr: 0x1000033A8, symSize: 0x18 }
  - { offsetInCU: 0xD89C, offset: 0xD89C, size: 0x8, addend: 0x0, symName: __ZNSt3__16vectorIiNS_9allocatorIiEEE11__vallocateB7v160006Em, symObjAddr: 0x1E3C, symBinAddr: 0x1000033C0, symSize: 0xAC }
  - { offsetInCU: 0xD8E0, offset: 0xD8E0, size: 0x8, addend: 0x0, symName: __ZNSt3__16vectorIiNS_9allocatorIiEEE18__construct_at_endIPKiLi0EEEvT_S7_m, symObjAddr: 0x1EE8, symBinAddr: 0x10000346C, symSize: 0x8C }
  - { offsetInCU: 0xD953, offset: 0xD953, size: 0x8, addend: 0x0, symName: __ZNKSt16initializer_listIiE5beginB7v160006Ev, symObjAddr: 0x1F74, symBinAddr: 0x1000034F8, symSize: 0x18 }
  - { offsetInCU: 0xD979, offset: 0xD979, size: 0x8, addend: 0x0, symName: __ZNKSt16initializer_listIiE3endB7v160006Ev, symObjAddr: 0x1F8C, symBinAddr: 0x100003510, symSize: 0x20 }
  - { offsetInCU: 0xD99F, offset: 0xD99F, size: 0x8, addend: 0x0, symName: __ZNSt3__128__exception_guard_exceptionsINS_6vectorIiNS_9allocatorIiEEE16__destroy_vectorEE10__completeB7v160006Ev, symObjAddr: 0x1FAC, symBinAddr: 0x100003530, symSize: 0x1C }
  - { offsetInCU: 0xD9C5, offset: 0xD9C5, size: 0x8, addend: 0x0, symName: __ZNSt3__128__exception_guard_exceptionsINS_6vectorIiNS_9allocatorIiEEE16__destroy_vectorEED1B7v160006Ev, symObjAddr: 0x1FC8, symBinAddr: 0x10000354C, symSize: 0x2C }
  - { offsetInCU: 0xD9EF, offset: 0xD9EF, size: 0x8, addend: 0x0, symName: __ZNSt3__117__compressed_pairIPiNS_9allocatorIiEEEC2B7v160006IDnNS_18__default_init_tagEEEOT_OT0_, symObjAddr: 0x1FF4, symBinAddr: 0x100003578, symSize: 0x40 }
  - { offsetInCU: 0xDA47, offset: 0xDA47, size: 0x8, addend: 0x0, symName: __ZNSt3__122__compressed_pair_elemIPiLi0ELb0EEC2B7v160006IDnvEEOT_, symObjAddr: 0x2034, symBinAddr: 0x1000035B8, symSize: 0x1C }
  - { offsetInCU: 0xDA89, offset: 0xDA89, size: 0x8, addend: 0x0, symName: __ZNSt3__122__compressed_pair_elemINS_9allocatorIiEELi1ELb1EEC2B7v160006ENS_18__default_init_tagE, symObjAddr: 0x2050, symBinAddr: 0x1000035D4, symSize: 0x2C }
  - { offsetInCU: 0xDABE, offset: 0xDABE, size: 0x8, addend: 0x0, symName: __ZNSt3__19allocatorIiEC2B7v160006Ev, symObjAddr: 0x207C, symBinAddr: 0x100003600, symSize: 0x2C }
  - { offsetInCU: 0xDAE8, offset: 0xDAE8, size: 0x8, addend: 0x0, symName: __ZNSt3__116__non_trivial_ifILb1ENS_9allocatorIiEEEC2B7v160006Ev, symObjAddr: 0x20A8, symBinAddr: 0x10000362C, symSize: 0x14 }
  - { offsetInCU: 0xDB12, offset: 0xDB12, size: 0x8, addend: 0x0, symName: __ZNSt3__128__exception_guard_exceptionsINS_6vectorIiNS_9allocatorIiEEE16__destroy_vectorEEC1B7v160006ES5_, symObjAddr: 0x20BC, symBinAddr: 0x100003640, symSize: 0x34 }
  - { offsetInCU: 0xDB4A, offset: 0xDB4A, size: 0x8, addend: 0x0, symName: __ZNSt3__128__exception_guard_exceptionsINS_6vectorIiNS_9allocatorIiEEE16__destroy_vectorEEC2B7v160006ES5_, symObjAddr: 0x20F0, symBinAddr: 0x100003674, symSize: 0x24 }
  - { offsetInCU: 0xDB82, offset: 0xDB82, size: 0x8, addend: 0x0, symName: __ZNSt3__16vectorIiNS_9allocatorIiEEE16__destroy_vectorC2ERS3_, symObjAddr: 0x2114, symBinAddr: 0x100003698, symSize: 0x20 }
  - { offsetInCU: 0xDBBB, offset: 0xDBBB, size: 0x8, addend: 0x0, symName: __ZNKSt3__16vectorIiNS_9allocatorIiEEE8max_sizeEv, symObjAddr: 0x2134, symBinAddr: 0x1000036B8, symSize: 0x60 }
  - { offsetInCU: 0xDBE3, offset: 0xDBE3, size: 0x8, addend: 0x0, symName: __ZNKSt3__16vectorIiNS_9allocatorIiEEE20__throw_length_errorB7v160006Ev, symObjAddr: 0x2194, symBinAddr: 0x100003718, symSize: 0x1C }
  - { offsetInCU: 0xDC09, offset: 0xDC09, size: 0x8, addend: 0x0, symName: __ZNSt3__16vectorIiNS_9allocatorIiEEE7__allocB7v160006Ev, symObjAddr: 0x21F0, symBinAddr: 0x100003774, symSize: 0x28 }
  - { offsetInCU: 0xDC2F, offset: 0xDC2F, size: 0x8, addend: 0x0, symName: __ZNSt3__16vectorIiNS_9allocatorIiEEE9__end_capB7v160006Ev, symObjAddr: 0x2218, symBinAddr: 0x10000379C, symSize: 0x28 }
  - { offsetInCU: 0xDC55, offset: 0xDC55, size: 0x8, addend: 0x0, symName: __ZNKSt3__16vectorIiNS_9allocatorIiEEE14__annotate_newB7v160006Em, symObjAddr: 0x2240, symBinAddr: 0x1000037C4, symSize: 0xAC }
  - { offsetInCU: 0xDC94, offset: 0xDC94, size: 0x8, addend: 0x0, symName: __ZNSt3__116allocator_traitsINS_9allocatorIiEEE8max_sizeB7v160006IS2_vEEmRKS2_, symObjAddr: 0x2318, symBinAddr: 0x10000389C, symSize: 0x24 }
  - { offsetInCU: 0xDCC2, offset: 0xDCC2, size: 0x8, addend: 0x0, symName: __ZNKSt3__16vectorIiNS_9allocatorIiEEE7__allocB7v160006Ev, symObjAddr: 0x233C, symBinAddr: 0x1000038C0, symSize: 0x28 }
  - { offsetInCU: 0xDCE8, offset: 0xDCE8, size: 0x8, addend: 0x0, symName: __ZNSt3__114numeric_limitsIlE3maxB7v160006Ev, symObjAddr: 0x2364, symBinAddr: 0x1000038E8, symSize: 0x14 }
  - { offsetInCU: 0xDD10, offset: 0xDD10, size: 0x8, addend: 0x0, symName: __ZNKSt3__16__lessImmEclB7v160006ERKmS3_, symObjAddr: 0x23CC, symBinAddr: 0x100003950, symSize: 0x34 }
  - { offsetInCU: 0xDD52, offset: 0xDD52, size: 0x8, addend: 0x0, symName: __ZNKSt3__19allocatorIiE8max_sizeB7v160006Ev, symObjAddr: 0x2400, symBinAddr: 0x100003984, symSize: 0x14 }
  - { offsetInCU: 0xDD78, offset: 0xDD78, size: 0x8, addend: 0x0, symName: __ZNKSt3__117__compressed_pairIPiNS_9allocatorIiEEE6secondB7v160006Ev, symObjAddr: 0x2414, symBinAddr: 0x100003998, symSize: 0x24 }
  - { offsetInCU: 0xDD9E, offset: 0xDD9E, size: 0x8, addend: 0x0, symName: __ZNKSt3__122__compressed_pair_elemINS_9allocatorIiEELi1ELb1EE5__getB7v160006Ev, symObjAddr: 0x2438, symBinAddr: 0x1000039BC, symSize: 0x14 }
  - { offsetInCU: 0xDDC4, offset: 0xDDC4, size: 0x8, addend: 0x0, symName: __ZNSt3__123__libcpp_numeric_limitsIlLb1EE3maxB7v160006Ev, symObjAddr: 0x244C, symBinAddr: 0x1000039D0, symSize: 0x8 }
  - { offsetInCU: 0xDDD8, offset: 0xDDD8, size: 0x8, addend: 0x0, symName: __ZNSt12length_errorC1B7v160006EPKc, symObjAddr: 0x24B8, symBinAddr: 0x100003A3C, symSize: 0x34 }
  - { offsetInCU: 0xDE10, offset: 0xDE10, size: 0x8, addend: 0x0, symName: __ZNSt12length_errorC2B7v160006EPKc, symObjAddr: 0x24EC, symBinAddr: 0x100003A70, symSize: 0x4C }
  - { offsetInCU: 0xDE48, offset: 0xDE48, size: 0x8, addend: 0x0, symName: __ZNSt3__19allocatorIiE8allocateB7v160006Em, symObjAddr: 0x2538, symBinAddr: 0x100003ABC, symSize: 0x58 }
  - { offsetInCU: 0xDE7C, offset: 0xDE7C, size: 0x8, addend: 0x0, symName: __ZNSt3__117__compressed_pairIPiNS_9allocatorIiEEE6secondB7v160006Ev, symObjAddr: 0x2610, symBinAddr: 0x100003B94, symSize: 0x24 }
  - { offsetInCU: 0xDEA2, offset: 0xDEA2, size: 0x8, addend: 0x0, symName: __ZNSt3__122__compressed_pair_elemINS_9allocatorIiEELi1ELb1EE5__getB7v160006Ev, symObjAddr: 0x2634, symBinAddr: 0x100003BB8, symSize: 0x14 }
  - { offsetInCU: 0xDEC8, offset: 0xDEC8, size: 0x8, addend: 0x0, symName: __ZNSt3__117__compressed_pairIPiNS_9allocatorIiEEE5firstB7v160006Ev, symObjAddr: 0x2648, symBinAddr: 0x100003BCC, symSize: 0x24 }
  - { offsetInCU: 0xDEEE, offset: 0xDEEE, size: 0x8, addend: 0x0, symName: __ZNSt3__122__compressed_pair_elemIPiLi0ELb0EE5__getB7v160006Ev, symObjAddr: 0x266C, symBinAddr: 0x100003BF0, symSize: 0x14 }
  - { offsetInCU: 0xDF14, offset: 0xDF14, size: 0x8, addend: 0x0, symName: __ZNKSt3__16vectorIiNS_9allocatorIiEEE31__annotate_contiguous_containerB7v160006EPKvS5_S5_S5_, symObjAddr: 0x2680, symBinAddr: 0x100003C04, symSize: 0x20 }
  - { offsetInCU: 0xDF66, offset: 0xDF66, size: 0x8, addend: 0x0, symName: __ZNKSt3__16vectorIiNS_9allocatorIiEEE4dataB7v160006Ev, symObjAddr: 0x26A0, symBinAddr: 0x100003C24, symSize: 0x28 }
  - { offsetInCU: 0xDF8C, offset: 0xDF8C, size: 0x8, addend: 0x0, symName: __ZNKSt3__16vectorIiNS_9allocatorIiEEE8capacityB7v160006Ev, symObjAddr: 0x26C8, symBinAddr: 0x100003C4C, symSize: 0x40 }
  - { offsetInCU: 0xDFB2, offset: 0xDFB2, size: 0x8, addend: 0x0, symName: __ZNKSt3__16vectorIiNS_9allocatorIiEEE9__end_capB7v160006Ev, symObjAddr: 0x271C, symBinAddr: 0x100003CA0, symSize: 0x28 }
  - { offsetInCU: 0xDFD8, offset: 0xDFD8, size: 0x8, addend: 0x0, symName: __ZNKSt3__117__compressed_pairIPiNS_9allocatorIiEEE5firstB7v160006Ev, symObjAddr: 0x2744, symBinAddr: 0x100003CC8, symSize: 0x24 }
  - { offsetInCU: 0xDFFE, offset: 0xDFFE, size: 0x8, addend: 0x0, symName: __ZNKSt3__122__compressed_pair_elemIPiLi0ELb0EE5__getB7v160006Ev, symObjAddr: 0x2768, symBinAddr: 0x100003CEC, symSize: 0x14 }
  - { offsetInCU: 0xE03D, offset: 0xE03D, size: 0x8, addend: 0x0, symName: __ZNSt3__16vectorIiNS_9allocatorIiEEE21_ConstructTransactionC1B7v160006ERS3_m, symObjAddr: 0x277C, symBinAddr: 0x100003D00, symSize: 0x3C }
  - { offsetInCU: 0xE085, offset: 0xE085, size: 0x8, addend: 0x0, symName: __ZNSt3__16vectorIiNS_9allocatorIiEEE21_ConstructTransactionD1B7v160006Ev, symObjAddr: 0x27F0, symBinAddr: 0x100003D74, symSize: 0x2C }
  - { offsetInCU: 0xE0AF, offset: 0xE0AF, size: 0x8, addend: 0x0, symName: __ZNSt3__16vectorIiNS_9allocatorIiEEE21_ConstructTransactionC2B7v160006ERS3_m, symObjAddr: 0x281C, symBinAddr: 0x100003DA0, symSize: 0x44 }
  - { offsetInCU: 0xE11A, offset: 0xE11A, size: 0x8, addend: 0x0, symName: __ZNKSt3__114__copy_trivialclB7v160006IKiiLi0EEENS_4pairIPT_PT0_EES5_S5_S7_, symObjAddr: 0x2A3C, symBinAddr: 0x100003FC0, symSize: 0x48 }
  - { offsetInCU: 0xE1A0, offset: 0xE1A0, size: 0x8, addend: 0x0, symName: __ZNSt3__14pairIPKiS2_EC1B7v160006IS2_S2_LPv0EEEOT_OT0_, symObjAddr: 0x2BA4, symBinAddr: 0x100004128, symSize: 0x3C }
  - { offsetInCU: 0xE1FE, offset: 0xE1FE, size: 0x8, addend: 0x0, symName: __ZNSt3__14pairIPKiS2_EC2B7v160006IS2_S2_LPv0EEEOT_OT0_, symObjAddr: 0x2BE0, symBinAddr: 0x100004164, symSize: 0x34 }
  - { offsetInCU: 0xE25C, offset: 0xE25C, size: 0x8, addend: 0x0, symName: __ZNSt3__118__unwrap_iter_implIPKiLb1EE8__unwrapB7v160006ES2_, symObjAddr: 0x2C14, symBinAddr: 0x100004198, symSize: 0x24 }
  - { offsetInCU: 0xE289, offset: 0xE289, size: 0x8, addend: 0x0, symName: __ZNSt3__14pairIPKiPiEC1B7v160006IRS2_S3_LPv0EEEOT_OT0_, symObjAddr: 0x2D08, symBinAddr: 0x10000428C, symSize: 0x3C }
  - { offsetInCU: 0xE2E7, offset: 0xE2E7, size: 0x8, addend: 0x0, symName: __ZNSt3__14pairIPKiPiEC2B7v160006IRS2_S3_LPv0EEEOT_OT0_, symObjAddr: 0x2D44, symBinAddr: 0x1000042C8, symSize: 0x34 }
  - { offsetInCU: 0xE345, offset: 0xE345, size: 0x8, addend: 0x0, symName: __ZNSt3__118__unwrap_iter_implIPiLb1EE8__unwrapB7v160006ES1_, symObjAddr: 0x2D78, symBinAddr: 0x1000042FC, symSize: 0x24 }
  - { offsetInCU: 0xE368, offset: 0xE368, size: 0x8, addend: 0x0, symName: __ZNSt3__14pairIPKiPiEC1B7v160006IS2_S3_LPv0EEEOT_OT0_, symObjAddr: 0x2D9C, symBinAddr: 0x100004320, symSize: 0x3C }
  - { offsetInCU: 0xE3C6, offset: 0xE3C6, size: 0x8, addend: 0x0, symName: __ZNSt3__14pairIPKiPiEC2B7v160006IS2_S3_LPv0EEEOT_OT0_, symObjAddr: 0x2DD8, symBinAddr: 0x10000435C, symSize: 0x34 }
  - { offsetInCU: 0xE424, offset: 0xE424, size: 0x8, addend: 0x0, symName: __ZNSt3__118__unwrap_iter_implIPKiLb1EE8__rewrapB7v160006ES2_S2_, symObjAddr: 0x2E48, symBinAddr: 0x1000043CC, symSize: 0x50 }
  - { offsetInCU: 0xE455, offset: 0xE455, size: 0x8, addend: 0x0, symName: __ZNSt3__118__unwrap_iter_implIPiLb1EE8__rewrapB7v160006ES1_S1_, symObjAddr: 0x2E98, symBinAddr: 0x10000441C, symSize: 0x50 }
  - { offsetInCU: 0xE486, offset: 0xE486, size: 0x8, addend: 0x0, symName: __ZNSt3__16vectorIiNS_9allocatorIiEEE21_ConstructTransactionD2B7v160006Ev, symObjAddr: 0x2EE8, symBinAddr: 0x10000446C, symSize: 0x20 }
  - { offsetInCU: 0xE4B0, offset: 0xE4B0, size: 0x8, addend: 0x0, symName: __ZNSt3__128__exception_guard_exceptionsINS_6vectorIiNS_9allocatorIiEEE16__destroy_vectorEED2B7v160006Ev, symObjAddr: 0x2F08, symBinAddr: 0x10000448C, symSize: 0x50 }
  - { offsetInCU: 0xE4DA, offset: 0xE4DA, size: 0x8, addend: 0x0, symName: __ZNSt3__16vectorIiNS_9allocatorIiEEE16__destroy_vectorclB7v160006Ev, symObjAddr: 0x2F58, symBinAddr: 0x1000044DC, symSize: 0x9C }
  - { offsetInCU: 0xE500, offset: 0xE500, size: 0x8, addend: 0x0, symName: __ZNKSt3__16vectorIiNS_9allocatorIiEEE17__annotate_deleteB7v160006Ev, symObjAddr: 0x2FF4, symBinAddr: 0x100004578, symSize: 0xB8 }
  - { offsetInCU: 0xE526, offset: 0xE526, size: 0x8, addend: 0x0, symName: __ZNSt3__16vectorIiNS_9allocatorIiEEE7__clearB7v160006Ev, symObjAddr: 0x30BC, symBinAddr: 0x100004640, symSize: 0x28 }
  - { offsetInCU: 0xE54C, offset: 0xE54C, size: 0x8, addend: 0x0, symName: __ZNSt3__116allocator_traitsINS_9allocatorIiEEE10deallocateB7v160006ERS2_Pim, symObjAddr: 0x30E4, symBinAddr: 0x100004668, symSize: 0x34 }
  - { offsetInCU: 0xE58E, offset: 0xE58E, size: 0x8, addend: 0x0, symName: __ZNKSt3__16vectorIiNS_9allocatorIiEEE4sizeB7v160006Ev, symObjAddr: 0x3118, symBinAddr: 0x10000469C, symSize: 0x28 }
  - { offsetInCU: 0xE5B4, offset: 0xE5B4, size: 0x8, addend: 0x0, symName: __ZNSt3__16vectorIiNS_9allocatorIiEEE22__base_destruct_at_endB7v160006EPi, symObjAddr: 0x3140, symBinAddr: 0x1000046C4, symSize: 0x8C }
  - { offsetInCU: 0xE5F8, offset: 0xE5F8, size: 0x8, addend: 0x0, symName: __ZNSt3__116allocator_traitsINS_9allocatorIiEEE7destroyB7v160006IivEEvRS2_PT_, symObjAddr: 0x31CC, symBinAddr: 0x100004750, symSize: 0x2C }
  - { offsetInCU: 0xE635, offset: 0xE635, size: 0x8, addend: 0x0, symName: __ZNSt3__19allocatorIiE7destroyB7v160006EPi, symObjAddr: 0x31F8, symBinAddr: 0x10000477C, symSize: 0x14 }
  - { offsetInCU: 0xE669, offset: 0xE669, size: 0x8, addend: 0x0, symName: __ZNSt3__19allocatorIiE10deallocateB7v160006EPim, symObjAddr: 0x320C, symBinAddr: 0x100004790, symSize: 0x40 }
  - { offsetInCU: 0xE6AB, offset: 0xE6AB, size: 0x8, addend: 0x0, symName: __ZNSt3__16vectorIiNS_9allocatorIiEEED2B7v160006Ev, symObjAddr: 0x324C, symBinAddr: 0x1000047D0, symSize: 0x44 }
  - { offsetInCU: 0xE6D5, offset: 0xE6D5, size: 0x8, addend: 0x0, symName: __ZNSt3__111char_traitsIcE6lengthEPKc, symObjAddr: 0x347C, symBinAddr: 0x100004A00, symSize: 0x34 }
  - { offsetInCU: 0xE716, offset: 0xE716, size: 0x8, addend: 0x0, symName: __ZNKSt3__113basic_ostreamIcNS_11char_traitsIcEEE6sentrycvbB7v160006Ev, symObjAddr: 0x34B0, symBinAddr: 0x100004A34, symSize: 0x1C }
  - { offsetInCU: 0xE73C, offset: 0xE73C, size: 0x8, addend: 0x0, symName: __ZNSt3__119ostreambuf_iteratorIcNS_11char_traitsIcEEEC1B7v160006ERNS_13basic_ostreamIcS2_EE, symObjAddr: 0x370C, symBinAddr: 0x100004C90, symSize: 0x34 }
  - { offsetInCU: 0xE774, offset: 0xE774, size: 0x8, addend: 0x0, symName: __ZNKSt3__18ios_base5flagsB7v160006Ev, symObjAddr: 0x3740, symBinAddr: 0x100004CC4, symSize: 0x18 }
  - { offsetInCU: 0xE79C, offset: 0xE79C, size: 0x8, addend: 0x0, symName: __ZNKSt3__19basic_iosIcNS_11char_traitsIcEEE4fillB7v160006Ev, symObjAddr: 0x3758, symBinAddr: 0x100004CDC, symSize: 0x64 }
  - { offsetInCU: 0xE7C4, offset: 0xE7C4, size: 0x8, addend: 0x0, symName: __ZNKSt3__119ostreambuf_iteratorIcNS_11char_traitsIcEEE6failedB7v160006Ev, symObjAddr: 0x37BC, symBinAddr: 0x100004D40, symSize: 0x24 }
  - { offsetInCU: 0xE7EA, offset: 0xE7EA, size: 0x8, addend: 0x0, symName: __ZNSt3__19basic_iosIcNS_11char_traitsIcEEE8setstateB7v160006Ej, symObjAddr: 0x37E0, symBinAddr: 0x100004D64, symSize: 0x2C }
  - { offsetInCU: 0xE81F, offset: 0xE81F, size: 0x8, addend: 0x0, symName: __ZNKSt3__18ios_base5widthB7v160006Ev, symObjAddr: 0x380C, symBinAddr: 0x100004D90, symSize: 0x18 }
  - { offsetInCU: 0xE847, offset: 0xE847, size: 0x8, addend: 0x0, symName: __ZNSt3__115basic_streambufIcNS_11char_traitsIcEEE5sputnB7v160006EPKcl, symObjAddr: 0x3824, symBinAddr: 0x100004DA8, symSize: 0x3C }
  - { offsetInCU: 0xE889, offset: 0xE889, size: 0x8, addend: 0x0, symName: __ZNSt3__112basic_stringIcNS_11char_traitsIcEENS_9allocatorIcEEEC1B7v160006Emc, symObjAddr: 0x3860, symBinAddr: 0x100004DE4, symSize: 0x3C }
  - { offsetInCU: 0xE8D1, offset: 0xE8D1, size: 0x8, addend: 0x0, symName: __ZNSt3__18ios_base5widthB7v160006El, symObjAddr: 0x389C, symBinAddr: 0x100004E20, symSize: 0x2C }
  - { offsetInCU: 0xE917, offset: 0xE917, size: 0x8, addend: 0x0, symName: __ZNSt3__112basic_stringIcNS_11char_traitsIcEENS_9allocatorIcEEEC2B7v160006Emc, symObjAddr: 0x38C8, symBinAddr: 0x100004E4C, symSize: 0x54 }
  - { offsetInCU: 0xE95F, offset: 0xE95F, size: 0x8, addend: 0x0, symName: __ZNSt3__117__compressed_pairINS_12basic_stringIcNS_11char_traitsIcEENS_9allocatorIcEEE5__repES5_EC1B7v160006INS_18__default_init_tagESA_EEOT_OT0_, symObjAddr: 0x391C, symBinAddr: 0x100004EA0, symSize: 0x3C }
  - { offsetInCU: 0xE9B7, offset: 0xE9B7, size: 0x8, addend: 0x0, symName: __ZNSt3__117__compressed_pairINS_12basic_stringIcNS_11char_traitsIcEENS_9allocatorIcEEE5__repES5_EC2B7v160006INS_18__default_init_tagESA_EEOT_OT0_, symObjAddr: 0x3968, symBinAddr: 0x100004EEC, symSize: 0x3C }
  - { offsetInCU: 0xEA0F, offset: 0xEA0F, size: 0x8, addend: 0x0, symName: __ZNSt3__122__compressed_pair_elemINS_12basic_stringIcNS_11char_traitsIcEENS_9allocatorIcEEE5__repELi0ELb0EEC2B7v160006ENS_18__default_init_tagE, symObjAddr: 0x39A4, symBinAddr: 0x100004F28, symSize: 0x14 }
  - { offsetInCU: 0xEA44, offset: 0xEA44, size: 0x8, addend: 0x0, symName: __ZNSt3__122__compressed_pair_elemINS_9allocatorIcEELi1ELb1EEC2B7v160006ENS_18__default_init_tagE, symObjAddr: 0x39B8, symBinAddr: 0x100004F3C, symSize: 0x2C }
  - { offsetInCU: 0xEA79, offset: 0xEA79, size: 0x8, addend: 0x0, symName: __ZNSt3__19allocatorIcEC2B7v160006Ev, symObjAddr: 0x39E4, symBinAddr: 0x100004F68, symSize: 0x2C }
  - { offsetInCU: 0xEAA3, offset: 0xEAA3, size: 0x8, addend: 0x0, symName: __ZNSt3__116__non_trivial_ifILb1ENS_9allocatorIcEEEC2B7v160006Ev, symObjAddr: 0x3A10, symBinAddr: 0x100004F94, symSize: 0x14 }
  - { offsetInCU: 0xEACD, offset: 0xEACD, size: 0x8, addend: 0x0, symName: __ZNSt3__119ostreambuf_iteratorIcNS_11char_traitsIcEEEC2B7v160006ERNS_13basic_ostreamIcS2_EE, symObjAddr: 0x3A24, symBinAddr: 0x100004FA8, symSize: 0x54 }
  - { offsetInCU: 0xEB05, offset: 0xEB05, size: 0x8, addend: 0x0, symName: __ZNKSt3__19basic_iosIcNS_11char_traitsIcEEE5rdbufB7v160006Ev, symObjAddr: 0x3A78, symBinAddr: 0x100004FFC, symSize: 0x24 }
  - { offsetInCU: 0xEB2D, offset: 0xEB2D, size: 0x8, addend: 0x0, symName: __ZNKSt3__18ios_base5rdbufB7v160006Ev, symObjAddr: 0x3A9C, symBinAddr: 0x100005020, symSize: 0x18 }
  - { offsetInCU: 0xEB53, offset: 0xEB53, size: 0x8, addend: 0x0, symName: __ZNSt3__111char_traitsIcE11eq_int_typeEii, symObjAddr: 0x3AB4, symBinAddr: 0x100005038, symSize: 0x28 }
  - { offsetInCU: 0xEB84, offset: 0xEB84, size: 0x8, addend: 0x0, symName: __ZNSt3__111char_traitsIcE3eofEv, symObjAddr: 0x3ADC, symBinAddr: 0x100005060, symSize: 0x8 }
  - { offsetInCU: 0xEB98, offset: 0xEB98, size: 0x8, addend: 0x0, symName: __ZNKSt3__19basic_iosIcNS_11char_traitsIcEEE5widenB7v160006Ec, symObjAddr: 0x3AE4, symBinAddr: 0x100005068, symSize: 0x84 }
  - { offsetInCU: 0xEC06, offset: 0xEC06, size: 0x8, addend: 0x0, symName: __ZNKSt3__15ctypeIcE5widenB7v160006Ec, symObjAddr: 0x3B94, symBinAddr: 0x100005118, symSize: 0x38 }
  - { offsetInCU: 0xEC3B, offset: 0xEC3B, size: 0x8, addend: 0x0, symName: __ZNSt3__18ios_base8setstateB7v160006Ej, symObjAddr: 0x3BCC, symBinAddr: 0x100005150, symSize: 0x34 }
  - { offsetInCU: 0xEC72, offset: 0xEC72, size: 0x8, addend: 0x0, symName: __ZNSt3__112basic_stringIcNS_11char_traitsIcEENS_9allocatorIcEEEC2B7v160006IDnEEPKc, symObjAddr: 0x3C24, symBinAddr: 0x1000051A8, symSize: 0x60 }
  - { offsetInCU: 0x3D9B, offset: 0x12D82, size: 0x8, addend: 0x0, symName: __ZNSt3__1lsB7v160006INS_11char_traitsIcEEEERNS_13basic_ostreamIcT_EES6_c, symObjAddr: 0x124, symBinAddr: 0x1000053E8, symSize: 0x34 }
  - { offsetInCU: 0x6188, offset: 0x1516F, size: 0x8, addend: 0x0, symName: __ZN6Button7displayEv, symObjAddr: 0x0, symBinAddr: 0x1000052C4, symSize: 0x114 }
  - { offsetInCU: 0x61B0, offset: 0x15197, size: 0x8, addend: 0x0, symName: __ZN6Button12handle_eventEP9SDL_Event, symObjAddr: 0x158, symBinAddr: 0x10000541C, symSize: 0x1C0 }
  - { offsetInCU: 0x6211, offset: 0x151F8, size: 0x8, addend: 0x0, symName: __ZN6ButtonD2Ev, symObjAddr: 0x318, symBinAddr: 0x1000055DC, symSize: 0x50 }
  - { offsetInCU: 0x623D, offset: 0x15224, size: 0x8, addend: 0x0, symName: __ZN6ButtonD1Ev, symObjAddr: 0x374, symBinAddr: 0x10000562C, symSize: 0x2C }
  - { offsetInCU: 0x26, offset: 0x15299, size: 0x8, addend: 0x0, symName: __ZN3Mob10set_sourceENSt3__112basic_stringIcNS0_11char_traitsIcEENS0_9allocatorIcEEEES6_S6_, symObjAddr: 0x0, symBinAddr: 0x100005658, symSize: 0xBC }
  - { offsetInCU: 0x4DA9, offset: 0x1A01C, size: 0x8, addend: 0x0, symName: __ZN3Mob10set_sourceENSt3__112basic_stringIcNS0_11char_traitsIcEENS0_9allocatorIcEEEES6_S6_, symObjAddr: 0x0, symBinAddr: 0x100005658, symSize: 0xBC }
  - { offsetInCU: 0x4DFE, offset: 0x1A071, size: 0x8, addend: 0x0, symName: __ZN3Mob9collisionER5Solid, symObjAddr: 0xE0, symBinAddr: 0x100005714, symSize: 0x24C }
  - { offsetInCU: 0x47D7, offset: 0x1E883, size: 0x8, addend: 0x0, symName: __ZN6EntityC2EP12SDL_RendererNSt3__112basic_stringIcNS2_11char_traitsIcEENS2_9allocatorIcEEEEiiii, symObjAddr: 0x0, symBinAddr: 0x100005960, symSize: 0xEC }
  - { offsetInCU: 0x4858, offset: 0x1E904, size: 0x8, addend: 0x0, symName: __ZN6EntityC1EP12SDL_RendererNSt3__112basic_stringIcNS2_11char_traitsIcEENS2_9allocatorIcEEEEiiii, symObjAddr: 0x110, symBinAddr: 0x100005A4C, symSize: 0x5C }
  - { offsetInCU: 0x48D9, offset: 0x1E985, size: 0x8, addend: 0x0, symName: __ZN6Entity7displayEv, symObjAddr: 0x16C, symBinAddr: 0x100005AA8, symSize: 0x34 }
  - { offsetInCU: 0x4901, offset: 0x1E9AD, size: 0x8, addend: 0x0, symName: __ZN6EntityD2Ev, symObjAddr: 0x1A0, symBinAddr: 0x100005ADC, symSize: 0x48 }
  - { offsetInCU: 0x492D, offset: 0x1E9D9, size: 0x8, addend: 0x0, symName: __ZN6EntityD1Ev, symObjAddr: 0x1F4, symBinAddr: 0x100005B24, symSize: 0x2C }
  - { offsetInCU: 0x26, offset: 0x1EA30, size: 0x8, addend: 0x0, symName: __ZN6Player12handle_eventEPKhP9SDL_Event, symObjAddr: 0x0, symBinAddr: 0x100005B50, symSize: 0x508 }
  - { offsetInCU: 0x5787, offset: 0x24191, size: 0x8, addend: 0x0, symName: __ZN6Player12handle_eventEPKhP9SDL_Event, symObjAddr: 0x0, symBinAddr: 0x100005B50, symSize: 0x508 }
  - { offsetInCU: 0x57CB, offset: 0x241D5, size: 0x8, addend: 0x0, symName: __Z4sqrtB7v160006IiENSt3__19enable_ifIXsr3std11is_integralIT_EE5valueEdE4typeES2_, symObjAddr: 0x508, symBinAddr: 0x100006058, symSize: 0x24 }
  - { offsetInCU: 0x5803, offset: 0x2420D, size: 0x8, addend: 0x0, symName: __Z4sqrtB7v160006f, symObjAddr: 0x52C, symBinAddr: 0x10000607C, symSize: 0x18 }
  - { offsetInCU: 0x5832, offset: 0x2423C, size: 0x8, addend: 0x0, symName: __ZN6Player7displayEv, symObjAddr: 0x544, symBinAddr: 0x100006094, symSize: 0x950 }
  - { offsetInCU: 0x585A, offset: 0x24264, size: 0x8, addend: 0x0, symName: __Z3absB7v160006d, symObjAddr: 0xED4, symBinAddr: 0x100006A24, symSize: 0x18 }
  - { offsetInCU: 0x5886, offset: 0x24290, size: 0x8, addend: 0x0, symName: __ZN6Player4pickER6Weapon, symObjAddr: 0xEEC, symBinAddr: 0x100006A3C, symSize: 0x190 }
  - { offsetInCU: 0x26, offset: 0x242F3, size: 0x8, addend: 0x0, symName: __ZN5Solid7displayEv, symObjAddr: 0x0, symBinAddr: 0x100006BCC, symSize: 0x6C }
  - { offsetInCU: 0x4ACF, offset: 0x28D9C, size: 0x8, addend: 0x0, symName: __ZN5Solid7displayEv, symObjAddr: 0x0, symBinAddr: 0x100006BCC, symSize: 0x6C }
  - { offsetInCU: 0x4AF7, offset: 0x28DC4, size: 0x8, addend: 0x0, symName: __ZN5Solid9collisionERS_, symObjAddr: 0x6C, symBinAddr: 0x100006C38, symSize: 0xF0 }
  - { offsetInCU: 0x47AC, offset: 0x2D5AB, size: 0x8, addend: 0x0, symName: __ZN10BackgroundC2ENSt3__112basic_stringIcNS0_11char_traitsIcEENS0_9allocatorIcEEEEii, symObjAddr: 0x0, symBinAddr: 0x100006D28, symSize: 0xD8 }
  - { offsetInCU: 0x4803, offset: 0x2D602, size: 0x8, addend: 0x0, symName: __ZN10BackgroundC1ENSt3__112basic_stringIcNS0_11char_traitsIcEENS0_9allocatorIcEEEEii, symObjAddr: 0x178, symBinAddr: 0x100006E00, symSize: 0x44 }
  - { offsetInCU: 0x485A, offset: 0x2D659, size: 0x8, addend: 0x0, symName: __ZN10Background7cleanUPEv, symObjAddr: 0x1BC, symBinAddr: 0x100006E44, symSize: 0x38 }
  - { offsetInCU: 0x4882, offset: 0x2D681, size: 0x8, addend: 0x0, symName: __ZN10Background11loadTextureENSt3__112basic_stringIcNS0_11char_traitsIcEENS0_9allocatorIcEEEE, symObjAddr: 0x1F4, symBinAddr: 0x100006E7C, symSize: 0x98 }
  - { offsetInCU: 0x48C7, offset: 0x2D6C6, size: 0x8, addend: 0x0, symName: __ZN10Background5clearEv, symObjAddr: 0x28C, symBinAddr: 0x100006F14, symSize: 0x28 }
  - { offsetInCU: 0x48EF, offset: 0x2D6EE, size: 0x8, addend: 0x0, symName: __ZN10Background7displayEv, symObjAddr: 0x2B4, symBinAddr: 0x100006F3C, symSize: 0x28 }
  - { offsetInCU: 0x4917, offset: 0x2D716, size: 0x8, addend: 0x0, symName: __ZN10BackgroundD2Ev, symObjAddr: 0x2DC, symBinAddr: 0x100006F64, symSize: 0x38 }
  - { offsetInCU: 0x4943, offset: 0x2D742, size: 0x8, addend: 0x0, symName: __ZN10BackgroundD1Ev, symObjAddr: 0x320, symBinAddr: 0x100006F9C, symSize: 0x2C }
  - { offsetInCU: 0x26, offset: 0x2D799, size: 0x8, addend: 0x0, symName: __ZN6WeaponC2EP12SDL_Rendererff4Math, symObjAddr: 0x0, symBinAddr: 0x100006FC8, symSize: 0x1EC }
  - { offsetInCU: 0x4ADC, offset: 0x3224F, size: 0x8, addend: 0x0, symName: __ZN6WeaponC2EP12SDL_Rendererff4Math, symObjAddr: 0x0, symBinAddr: 0x100006FC8, symSize: 0x1EC }
  - { offsetInCU: 0x4B40, offset: 0x322B3, size: 0x8, addend: 0x0, symName: __ZN5SolidC2Ev, symObjAddr: 0x200, symBinAddr: 0x1000071C8, symSize: 0xA0 }
  - { offsetInCU: 0x4B6A, offset: 0x322DD, size: 0x8, addend: 0x0, symName: __ZN6WeaponC1EP12SDL_Rendererff4Math, symObjAddr: 0x2CC, symBinAddr: 0x100007268, symSize: 0x4C }
  - { offsetInCU: 0x4BCE, offset: 0x32341, size: 0x8, addend: 0x0, symName: __ZN6Weapon7displayEv, symObjAddr: 0x318, symBinAddr: 0x1000072B4, symSize: 0x84 }
...
