---
triple:          'arm64-apple-darwin'
binary-path:     '/Users/sunhigh913/Desktop/SDL2_project/src/main'
relocations:
  - { offsetInCU: 0x44B8, offset: 0x44B8, size: 0x8, addend: 0x0, symName: __ZNSt3__119__debug_db_insert_cB7v160006INS_6vectorI4MathNS_9allocatorIS2_EEEEEEvPT_, symObjAddr: 0xEBC, symBinAddr: 0x100002B78, symSize: 0x10 }
  - { offsetInCU: 0x44E9, offset: 0x44E9, size: 0x8, addend: 0x0, symName: __ZNSt3__118__debug_db_erase_cB7v160006INS_6vectorI4MathNS_9allocatorIS2_EEEEEEvPT_, symObjAddr: 0x137C, symBinAddr: 0x100003038, symSize: 0x10 }
  - { offsetInCU: 0x451A, offset: 0x451A, size: 0x8, addend: 0x0, symName: __ZNSt3__112__to_addressB7v160006I4MathEEPT_S3_, symObjAddr: 0x14C0, symBinAddr: 0x10000317C, symSize: 0x14 }
  - { offsetInCU: 0x454F, offset: 0x454F, size: 0x8, addend: 0x0, symName: __ZNSt3__119__libcpp_deallocateB7v160006EPvmm, symObjAddr: 0x15E0, symBinAddr: 0x10000329C, symSize: 0x30 }
  - { offsetInCU: 0x4597, offset: 0x4597, size: 0x8, addend: 0x0, symName: __ZNSt3__127__do_deallocate_handle_sizeB7v160006IJEEEvPvmDpT_, symObjAddr: 0x1610, symBinAddr: 0x1000032CC, symSize: 0x28 }
  - { offsetInCU: 0x45D5, offset: 0x45D5, size: 0x8, addend: 0x0, symName: __ZNSt3__124__libcpp_operator_deleteB7v160006IJPvEEEvDpT_, symObjAddr: 0x1638, symBinAddr: 0x1000032F4, symSize: 0x24 }
  - { offsetInCU: 0x460A, offset: 0x460A, size: 0x8, addend: 0x0, symName: __ZNSt3__112__to_addressB7v160006IKcEEPT_S3_, symObjAddr: 0x171C, symBinAddr: 0x1000033D8, symSize: 0x14 }
  - { offsetInCU: 0x4672, offset: 0x4672, size: 0x8, addend: 0x0, symName: __ZNSt3__119__debug_db_insert_cB7v160006INS_12basic_stringIcNS_11char_traitsIcEENS_9allocatorIcEEEEEEvPT_, symObjAddr: 0x1928, symBinAddr: 0x1000035E4, symSize: 0x10 }
  - { offsetInCU: 0x46A3, offset: 0x46A3, size: 0x8, addend: 0x0, symName: __ZNSt3__118__constexpr_strlenB7v160006EPKc, symObjAddr: 0x19F4, symBinAddr: 0x1000036B0, symSize: 0x24 }
  - { offsetInCU: 0x6DDB, offset: 0x6DDB, size: 0x8, addend: 0x0, symName: __ZN4TextC2EP12SDL_RendererNSt3__112basic_stringIcNS2_11char_traitsIcEENS2_9allocatorIcEEEES8_ffffi, symObjAddr: 0x0, symBinAddr: 0x100001CBC, symSize: 0x2B4 }
  - { offsetInCU: 0x6E8B, offset: 0x6E8B, size: 0x8, addend: 0x0, symName: __ZN6EntityC2Ev, symObjAddr: 0x2B4, symBinAddr: 0x100001F70, symSize: 0x24 }
  - { offsetInCU: 0x6EB3, offset: 0x6EB3, size: 0x8, addend: 0x0, symName: __ZNKSt3__112basic_stringIcNS_11char_traitsIcEENS_9allocatorIcEEE5c_strB7v160006Ev, symObjAddr: 0x2D8, symBinAddr: 0x100001F94, symSize: 0x24 }
  - { offsetInCU: 0x6ED7, offset: 0x6ED7, size: 0x8, addend: 0x0, symName: __ZN4TextC1EP12SDL_RendererNSt3__112basic_stringIcNS2_11char_traitsIcEENS2_9allocatorIcEEEES8_ffffi, symObjAddr: 0x2FC, symBinAddr: 0x100001FB8, symSize: 0x6C }
  - { offsetInCU: 0x6F72, offset: 0x6F72, size: 0x8, addend: 0x0, symName: __ZN4Text7displayEbi, symObjAddr: 0x368, symBinAddr: 0x100002024, symSize: 0x6C }
  - { offsetInCU: 0x6FB3, offset: 0x6FB3, size: 0x8, addend: 0x0, symName: __ZN4Text7releaseEv, symObjAddr: 0x3D4, symBinAddr: 0x100002090, symSize: 0x38 }
  - { offsetInCU: 0x6FD8, offset: 0x6FD8, size: 0x8, addend: 0x0, symName: __ZN4TextD2Ev, symObjAddr: 0x40C, symBinAddr: 0x1000020C8, symSize: 0x6C }
  - { offsetInCU: 0x7001, offset: 0x7001, size: 0x8, addend: 0x0, symName: __ZN4TextD1Ev, symObjAddr: 0x484, symBinAddr: 0x100002140, symSize: 0x2C }
  - { offsetInCU: 0x702A, offset: 0x702A, size: 0x8, addend: 0x0, symName: _main, symObjAddr: 0x4B0, symBinAddr: 0x10000216C, symSize: 0x484 }
  - { offsetInCU: 0x7102, offset: 0x7102, size: 0x8, addend: 0x0, symName: __ZNSt3__112basic_stringIcNS_11char_traitsIcEENS_9allocatorIcEEEC1B7v160006IDnEEPKc, symObjAddr: 0x934, symBinAddr: 0x1000025F0, symSize: 0x34 }
  - { offsetInCU: 0x8471, offset: 0x8471, size: 0x8, addend: 0x0, symName: __ZN6PlayerC1EP12SDL_RendererNSt3__112basic_stringIcNS2_11char_traitsIcEENS2_9allocatorIcEEEEiiiiP9SDL_Eventfi, symObjAddr: 0x968, symBinAddr: 0x100002624, symSize: 0x80 }
  - { offsetInCU: 0x8518, offset: 0x8518, size: 0x8, addend: 0x0, symName: __ZN6FodderC1EP12SDL_RendererNSt3__112basic_stringIcNS2_11char_traitsIcEENS2_9allocatorIcEEEEiiiiP9SDL_Eventi9math_kind, symObjAddr: 0x9E8, symBinAddr: 0x1000026A4, symSize: 0x88 }
  - { offsetInCU: 0x85BF, offset: 0x85BF, size: 0x8, addend: 0x0, symName: __ZN6FodderD1Ev, symObjAddr: 0xA70, symBinAddr: 0x10000272C, symSize: 0x2C }
  - { offsetInCU: 0x85E9, offset: 0x85E9, size: 0x8, addend: 0x0, symName: __ZN6PlayerD1Ev, symObjAddr: 0xA9C, symBinAddr: 0x100002758, symSize: 0x2C }
  - { offsetInCU: 0x8613, offset: 0x8613, size: 0x8, addend: 0x0, symName: __ZN6PlayerC2EP12SDL_RendererNSt3__112basic_stringIcNS2_11char_traitsIcEENS2_9allocatorIcEEEEiiiiP9SDL_Eventfi, symObjAddr: 0xAC8, symBinAddr: 0x100002784, symSize: 0x104 }
  - { offsetInCU: 0x86BA, offset: 0x86BA, size: 0x8, addend: 0x0, symName: __ZN3MobC2EP12SDL_RendererNSt3__112basic_stringIcNS2_11char_traitsIcEENS2_9allocatorIcEEEEiiiiP9SDL_Eventi, symObjAddr: 0xBCC, symBinAddr: 0x100002888, symSize: 0x104 }
  - { offsetInCU: 0x8753, offset: 0x8753, size: 0x8, addend: 0x0, symName: __ZNSt3__16vectorI4MathNS_9allocatorIS1_EEEC1B7v160006Ev, symObjAddr: 0xCD0, symBinAddr: 0x10000298C, symSize: 0x2C }
  - { offsetInCU: 0x877B, offset: 0x877B, size: 0x8, addend: 0x0, symName: __ZN5SolidC2EP12SDL_RendererNSt3__112basic_stringIcNS2_11char_traitsIcEENS2_9allocatorIcEEEEiiiiP9SDL_Event, symObjAddr: 0xCFC, symBinAddr: 0x1000029B8, symSize: 0x12C }
  - { offsetInCU: 0x8806, offset: 0x8806, size: 0x8, addend: 0x0, symName: __ZNSt3__16vectorI4MathNS_9allocatorIS1_EEEC2B7v160006Ev, symObjAddr: 0xE28, symBinAddr: 0x100002AE4, symSize: 0x58 }
  - { offsetInCU: 0x8838, offset: 0x8838, size: 0x8, addend: 0x0, symName: __ZNSt3__117__compressed_pairIP4MathNS_9allocatorIS1_EEEC1B7v160006IDnNS_18__default_init_tagEEEOT_OT0_, symObjAddr: 0xE80, symBinAddr: 0x100002B3C, symSize: 0x3C }
  - { offsetInCU: 0x888E, offset: 0x888E, size: 0x8, addend: 0x0, symName: __ZNSt3__117__compressed_pairIP4MathNS_9allocatorIS1_EEEC2B7v160006IDnNS_18__default_init_tagEEEOT_OT0_, symObjAddr: 0xECC, symBinAddr: 0x100002B88, symSize: 0x40 }
  - { offsetInCU: 0x88E4, offset: 0x88E4, size: 0x8, addend: 0x0, symName: __ZNSt3__122__compressed_pair_elemIP4MathLi0ELb0EEC2B7v160006IDnvEEOT_, symObjAddr: 0xF0C, symBinAddr: 0x100002BC8, symSize: 0x1C }
  - { offsetInCU: 0x8924, offset: 0x8924, size: 0x8, addend: 0x0, symName: __ZNSt3__122__compressed_pair_elemINS_9allocatorI4MathEELi1ELb1EEC2B7v160006ENS_18__default_init_tagE, symObjAddr: 0xF28, symBinAddr: 0x100002BE4, symSize: 0x2C }
  - { offsetInCU: 0x8956, offset: 0x8956, size: 0x8, addend: 0x0, symName: __ZNSt3__19allocatorI4MathEC2B7v160006Ev, symObjAddr: 0xF54, symBinAddr: 0x100002C10, symSize: 0x2C }
  - { offsetInCU: 0x897E, offset: 0x897E, size: 0x8, addend: 0x0, symName: __ZNSt3__116__non_trivial_ifILb1ENS_9allocatorI4MathEEEC2B7v160006Ev, symObjAddr: 0xF80, symBinAddr: 0x100002C3C, symSize: 0x14 }
  - { offsetInCU: 0x89A6, offset: 0x89A6, size: 0x8, addend: 0x0, symName: __ZN6FodderC2EP12SDL_RendererNSt3__112basic_stringIcNS2_11char_traitsIcEENS2_9allocatorIcEEEEiiiiP9SDL_Eventi9math_kind, symObjAddr: 0xF94, symBinAddr: 0x100002C50, symSize: 0x104 }
  - { offsetInCU: 0x8A4D, offset: 0x8A4D, size: 0x8, addend: 0x0, symName: __ZN6FodderD2Ev, symObjAddr: 0x1098, symBinAddr: 0x100002D54, symSize: 0x2C }
  - { offsetInCU: 0x8A77, offset: 0x8A77, size: 0x8, addend: 0x0, symName: __ZN3MobD2Ev, symObjAddr: 0x10C4, symBinAddr: 0x100002D80, symSize: 0x2C }
  - { offsetInCU: 0x8AA1, offset: 0x8AA1, size: 0x8, addend: 0x0, symName: __ZN5SolidD2Ev, symObjAddr: 0x10F0, symBinAddr: 0x100002DAC, symSize: 0x2C }
  - { offsetInCU: 0x8ACB, offset: 0x8ACB, size: 0x8, addend: 0x0, symName: __ZN6PlayerD2Ev, symObjAddr: 0x111C, symBinAddr: 0x100002DD8, symSize: 0x48 }
  - { offsetInCU: 0x8AF5, offset: 0x8AF5, size: 0x8, addend: 0x0, symName: __ZNSt3__16vectorI4MathNS_9allocatorIS1_EEED1B7v160006Ev, symObjAddr: 0x1164, symBinAddr: 0x100002E20, symSize: 0x2C }
  - { offsetInCU: 0x8B1D, offset: 0x8B1D, size: 0x8, addend: 0x0, symName: __ZNSt3__16vectorI4MathNS_9allocatorIS1_EEED2B7v160006Ev, symObjAddr: 0x1190, symBinAddr: 0x100002E4C, symSize: 0x44 }
  - { offsetInCU: 0x8B45, offset: 0x8B45, size: 0x8, addend: 0x0, symName: __ZNSt3__16vectorI4MathNS_9allocatorIS1_EEE16__destroy_vectorC1ERS4_, symObjAddr: 0x11D4, symBinAddr: 0x100002E90, symSize: 0x34 }
  - { offsetInCU: 0x8B7C, offset: 0x8B7C, size: 0x8, addend: 0x0, symName: __ZNSt3__16vectorI4MathNS_9allocatorIS1_EEE16__destroy_vectorclB7v160006Ev, symObjAddr: 0x1208, symBinAddr: 0x100002EC4, symSize: 0x9C }
  - { offsetInCU: 0x8BA0, offset: 0x8BA0, size: 0x8, addend: 0x0, symName: __ZNSt3__16vectorI4MathNS_9allocatorIS1_EEE16__destroy_vectorC2ERS4_, symObjAddr: 0x12A4, symBinAddr: 0x100002F60, symSize: 0x20 }
  - { offsetInCU: 0x8BD7, offset: 0x8BD7, size: 0x8, addend: 0x0, symName: __ZNKSt3__16vectorI4MathNS_9allocatorIS1_EEE17__annotate_deleteB7v160006Ev, symObjAddr: 0x12C4, symBinAddr: 0x100002F80, symSize: 0xB8 }
  - { offsetInCU: 0x8BFB, offset: 0x8BFB, size: 0x8, addend: 0x0, symName: __ZNSt3__16vectorI4MathNS_9allocatorIS1_EEE7__clearB7v160006Ev, symObjAddr: 0x138C, symBinAddr: 0x100003048, symSize: 0x28 }
  - { offsetInCU: 0x8C1F, offset: 0x8C1F, size: 0x8, addend: 0x0, symName: __ZNSt3__116allocator_traitsINS_9allocatorI4MathEEE10deallocateB7v160006ERS3_PS2_m, symObjAddr: 0x13B4, symBinAddr: 0x100003070, symSize: 0x34 }
  - { offsetInCU: 0x8C60, offset: 0x8C60, size: 0x8, addend: 0x0, symName: __ZNSt3__16vectorI4MathNS_9allocatorIS1_EEE7__allocB7v160006Ev, symObjAddr: 0x13E8, symBinAddr: 0x1000030A4, symSize: 0x28 }
  - { offsetInCU: 0x8C84, offset: 0x8C84, size: 0x8, addend: 0x0, symName: __ZNKSt3__16vectorI4MathNS_9allocatorIS1_EEE8capacityB7v160006Ev, symObjAddr: 0x1410, symBinAddr: 0x1000030CC, symSize: 0x40 }
  - { offsetInCU: 0x8CA8, offset: 0x8CA8, size: 0x8, addend: 0x0, symName: __ZNKSt3__16vectorI4MathNS_9allocatorIS1_EEE31__annotate_contiguous_containerB7v160006EPKvS6_S6_S6_, symObjAddr: 0x1450, symBinAddr: 0x10000310C, symSize: 0x20 }
  - { offsetInCU: 0x8CF8, offset: 0x8CF8, size: 0x8, addend: 0x0, symName: __ZNKSt3__16vectorI4MathNS_9allocatorIS1_EEE4dataB7v160006Ev, symObjAddr: 0x1470, symBinAddr: 0x10000312C, symSize: 0x28 }
  - { offsetInCU: 0x8D1C, offset: 0x8D1C, size: 0x8, addend: 0x0, symName: __ZNKSt3__16vectorI4MathNS_9allocatorIS1_EEE4sizeB7v160006Ev, symObjAddr: 0x1498, symBinAddr: 0x100003154, symSize: 0x28 }
  - { offsetInCU: 0x8D40, offset: 0x8D40, size: 0x8, addend: 0x0, symName: __ZNSt3__16vectorI4MathNS_9allocatorIS1_EEE22__base_destruct_at_endB7v160006EPS1_, symObjAddr: 0x14D4, symBinAddr: 0x100003190, symSize: 0x8C }
  - { offsetInCU: 0x8D82, offset: 0x8D82, size: 0x8, addend: 0x0, symName: __ZNSt3__116allocator_traitsINS_9allocatorI4MathEEE7destroyB7v160006IS2_vEEvRS3_PT_, symObjAddr: 0x1560, symBinAddr: 0x10000321C, symSize: 0x2C }
  - { offsetInCU: 0x8DBE, offset: 0x8DBE, size: 0x8, addend: 0x0, symName: __ZNSt3__19allocatorI4MathE7destroyB7v160006EPS1_, symObjAddr: 0x158C, symBinAddr: 0x100003248, symSize: 0x14 }
  - { offsetInCU: 0x8DF0, offset: 0x8DF0, size: 0x8, addend: 0x0, symName: __ZNSt3__19allocatorI4MathE10deallocateB7v160006EPS1_m, symObjAddr: 0x15A0, symBinAddr: 0x10000325C, symSize: 0x40 }
  - { offsetInCU: 0x8E30, offset: 0x8E30, size: 0x8, addend: 0x0, symName: __ZNSt3__117__compressed_pairIP4MathNS_9allocatorIS1_EEE6secondB7v160006Ev, symObjAddr: 0x165C, symBinAddr: 0x100003318, symSize: 0x24 }
  - { offsetInCU: 0x8E54, offset: 0x8E54, size: 0x8, addend: 0x0, symName: __ZNSt3__122__compressed_pair_elemINS_9allocatorI4MathEELi1ELb1EE5__getB7v160006Ev, symObjAddr: 0x1680, symBinAddr: 0x10000333C, symSize: 0x14 }
  - { offsetInCU: 0x8E78, offset: 0x8E78, size: 0x8, addend: 0x0, symName: __ZNKSt3__16vectorI4MathNS_9allocatorIS1_EEE9__end_capB7v160006Ev, symObjAddr: 0x1694, symBinAddr: 0x100003350, symSize: 0x28 }
  - { offsetInCU: 0x8E9C, offset: 0x8E9C, size: 0x8, addend: 0x0, symName: __ZNKSt3__117__compressed_pairIP4MathNS_9allocatorIS1_EEE5firstB7v160006Ev, symObjAddr: 0x16BC, symBinAddr: 0x100003378, symSize: 0x24 }
  - { offsetInCU: 0x8EC0, offset: 0x8EC0, size: 0x8, addend: 0x0, symName: __ZNKSt3__122__compressed_pair_elemIP4MathLi0ELb0EE5__getB7v160006Ev, symObjAddr: 0x16E0, symBinAddr: 0x10000339C, symSize: 0x14 }
  - { offsetInCU: 0x8EE4, offset: 0x8EE4, size: 0x8, addend: 0x0, symName: __ZNKSt3__112basic_stringIcNS_11char_traitsIcEENS_9allocatorIcEEE4dataB7v160006Ev, symObjAddr: 0x16F4, symBinAddr: 0x1000033B0, symSize: 0x28 }
  - { offsetInCU: 0x8F08, offset: 0x8F08, size: 0x8, addend: 0x0, symName: __ZNKSt3__112basic_stringIcNS_11char_traitsIcEENS_9allocatorIcEEE13__get_pointerB7v160006Ev, symObjAddr: 0x1730, symBinAddr: 0x1000033EC, symSize: 0x54 }
  - { offsetInCU: 0x8F2C, offset: 0x8F2C, size: 0x8, addend: 0x0, symName: __ZNKSt3__112basic_stringIcNS_11char_traitsIcEENS_9allocatorIcEEE9__is_longB7v160006Ev, symObjAddr: 0x1784, symBinAddr: 0x100003440, symSize: 0x38 }
  - { offsetInCU: 0x8F50, offset: 0x8F50, size: 0x8, addend: 0x0, symName: __ZNKSt3__112basic_stringIcNS_11char_traitsIcEENS_9allocatorIcEEE18__get_long_pointerB7v160006Ev, symObjAddr: 0x17BC, symBinAddr: 0x100003478, symSize: 0x28 }
  - { offsetInCU: 0x8F74, offset: 0x8F74, size: 0x8, addend: 0x0, symName: __ZNKSt3__112basic_stringIcNS_11char_traitsIcEENS_9allocatorIcEEE19__get_short_pointerB7v160006Ev, symObjAddr: 0x17E4, symBinAddr: 0x1000034A0, symSize: 0x28 }
  - { offsetInCU: 0x8F98, offset: 0x8F98, size: 0x8, addend: 0x0, symName: __ZNKSt3__117__compressed_pairINS_12basic_stringIcNS_11char_traitsIcEENS_9allocatorIcEEE5__repES5_E5firstB7v160006Ev, symObjAddr: 0x180C, symBinAddr: 0x1000034C8, symSize: 0x24 }
  - { offsetInCU: 0x8FBC, offset: 0x8FBC, size: 0x8, addend: 0x0, symName: __ZNKSt3__122__compressed_pair_elemINS_12basic_stringIcNS_11char_traitsIcEENS_9allocatorIcEEE5__repELi0ELb0EE5__getB7v160006Ev, symObjAddr: 0x1830, symBinAddr: 0x1000034EC, symSize: 0x14 }
  - { offsetInCU: 0x8FE0, offset: 0x8FE0, size: 0x8, addend: 0x0, symName: __ZNSt3__114pointer_traitsIPKcE10pointer_toB7v160006ERS1_, symObjAddr: 0x1844, symBinAddr: 0x100003500, symSize: 0x14 }
  - { offsetInCU: 0x9002, offset: 0x9002, size: 0x8, addend: 0x0, symName: __ZNSt3__112basic_stringIcNS_11char_traitsIcEENS_9allocatorIcEEEC2B7v160006IDnEEPKc, symObjAddr: 0x1858, symBinAddr: 0x100003514, symSize: 0x60 }
  - { offsetInCU: 0x903E, offset: 0x903E, size: 0x8, addend: 0x0, symName: __ZNSt3__117__compressed_pairINS_12basic_stringIcNS_11char_traitsIcEENS_9allocatorIcEEE5__repES5_EC1B7v160006INS_18__default_init_tagESA_EEOT_OT0_, symObjAddr: 0x18B8, symBinAddr: 0x100003574, symSize: 0x3C }
  - { offsetInCU: 0x9094, offset: 0x9094, size: 0x8, addend: 0x0, symName: __ZNSt3__111char_traitsIcE6lengthEPKc, symObjAddr: 0x18F4, symBinAddr: 0x1000035B0, symSize: 0x34 }
  - { offsetInCU: 0x90B6, offset: 0x90B6, size: 0x8, addend: 0x0, symName: __ZNSt3__117__compressed_pairINS_12basic_stringIcNS_11char_traitsIcEENS_9allocatorIcEEE5__repES5_EC2B7v160006INS_18__default_init_tagESA_EEOT_OT0_, symObjAddr: 0x1938, symBinAddr: 0x1000035F4, symSize: 0x3C }
  - { offsetInCU: 0x910C, offset: 0x910C, size: 0x8, addend: 0x0, symName: __ZNSt3__122__compressed_pair_elemINS_12basic_stringIcNS_11char_traitsIcEENS_9allocatorIcEEE5__repELi0ELb0EEC2B7v160006ENS_18__default_init_tagE, symObjAddr: 0x1974, symBinAddr: 0x100003630, symSize: 0x14 }
  - { offsetInCU: 0x913E, offset: 0x913E, size: 0x8, addend: 0x0, symName: __ZNSt3__122__compressed_pair_elemINS_9allocatorIcEELi1ELb1EEC2B7v160006ENS_18__default_init_tagE, symObjAddr: 0x1988, symBinAddr: 0x100003644, symSize: 0x2C }
  - { offsetInCU: 0x9170, offset: 0x9170, size: 0x8, addend: 0x0, symName: __ZNSt3__19allocatorIcEC2B7v160006Ev, symObjAddr: 0x19B4, symBinAddr: 0x100003670, symSize: 0x2C }
  - { offsetInCU: 0x9198, offset: 0x9198, size: 0x8, addend: 0x0, symName: __ZNSt3__116__non_trivial_ifILb1ENS_9allocatorIcEEEC2B7v160006Ev, symObjAddr: 0x19E0, symBinAddr: 0x10000369C, symSize: 0x14 }
  - { offsetInCU: 0x2A57, offset: 0xBEC3, size: 0x8, addend: 0x0, symName: __ZNSt3__124__put_character_sequenceB7v160006IcNS_11char_traitsIcEEEERNS_13basic_ostreamIT_T0_EES7_PKS4_m, symObjAddr: 0x404, symBinAddr: 0x100003944, symSize: 0x1EC }
  - { offsetInCU: 0x43BE, offset: 0xD82A, size: 0x8, addend: 0x0, symName: __ZNSt3__1lsB7v160006INS_11char_traitsIcEEEERNS_13basic_ostreamIcT_EES6_PKc, symObjAddr: 0x148, symBinAddr: 0x1000037F8, symSize: 0x48 }
  - { offsetInCU: 0x4405, offset: 0xD871, size: 0x8, addend: 0x0, symName: __ZNSt3__116__pad_and_outputB7v160006IcNS_11char_traitsIcEEEENS_19ostreambuf_iteratorIT_T0_EES6_PKS4_S8_S8_RNS_8ios_baseES4_, symObjAddr: 0x640, symBinAddr: 0x100003B4C, symSize: 0x240 }
  - { offsetInCU: 0x44D5, offset: 0xD941, size: 0x8, addend: 0x0, symName: __ZNSt3__19use_facetB7v160006INS_5ctypeIcEEEERKT_RKNS_6localeE, symObjAddr: 0xCDC, symBinAddr: 0x1000040E0, symSize: 0x2C }
  - { offsetInCU: 0x6AAF, offset: 0xFF1B, size: 0x8, addend: 0x0, symName: __ZN6EntityC2EP12SDL_RendererNSt3__112basic_stringIcNS2_11char_traitsIcEENS2_9allocatorIcEEEEiiii, symObjAddr: 0x0, symBinAddr: 0x1000036D4, symSize: 0x124 }
  - { offsetInCU: 0x6B2E, offset: 0xFF9A, size: 0x8, addend: 0x0, symName: __ZN6EntityC1EP12SDL_RendererNSt3__112basic_stringIcNS2_11char_traitsIcEENS2_9allocatorIcEEEEiiii, symObjAddr: 0x190, symBinAddr: 0x100003840, symSize: 0x5C }
  - { offsetInCU: 0x6BAD, offset: 0x10019, size: 0x8, addend: 0x0, symName: __ZN6Entity7displayEv, symObjAddr: 0x1EC, symBinAddr: 0x10000389C, symSize: 0x34 }
  - { offsetInCU: 0x6BD4, offset: 0x10040, size: 0x8, addend: 0x0, symName: __ZN6EntityD2Ev, symObjAddr: 0x220, symBinAddr: 0x1000038D0, symSize: 0x48 }
  - { offsetInCU: 0x6BFE, offset: 0x1006A, size: 0x8, addend: 0x0, symName: __ZN6EntityD1Ev, symObjAddr: 0x274, symBinAddr: 0x100003918, symSize: 0x2C }
  - { offsetInCU: 0x6C46, offset: 0x100B2, size: 0x8, addend: 0x0, symName: __ZNKSt3__113basic_ostreamIcNS_11char_traitsIcEEE6sentrycvbB7v160006Ev, symObjAddr: 0x624, symBinAddr: 0x100003B30, symSize: 0x1C }
  - { offsetInCU: 0x6C6A, offset: 0x100D6, size: 0x8, addend: 0x0, symName: __ZNSt3__119ostreambuf_iteratorIcNS_11char_traitsIcEEEC1B7v160006ERNS_13basic_ostreamIcS2_EE, symObjAddr: 0x880, symBinAddr: 0x100003D8C, symSize: 0x34 }
  - { offsetInCU: 0x6CA0, offset: 0x1010C, size: 0x8, addend: 0x0, symName: __ZNKSt3__18ios_base5flagsB7v160006Ev, symObjAddr: 0x8B4, symBinAddr: 0x100003DC0, symSize: 0x18 }
  - { offsetInCU: 0x6CC7, offset: 0x10133, size: 0x8, addend: 0x0, symName: __ZNKSt3__19basic_iosIcNS_11char_traitsIcEEE4fillB7v160006Ev, symObjAddr: 0x8CC, symBinAddr: 0x100003DD8, symSize: 0x64 }
  - { offsetInCU: 0x6CEE, offset: 0x1015A, size: 0x8, addend: 0x0, symName: __ZNKSt3__119ostreambuf_iteratorIcNS_11char_traitsIcEEE6failedB7v160006Ev, symObjAddr: 0x930, symBinAddr: 0x100003E3C, symSize: 0x24 }
  - { offsetInCU: 0x6D12, offset: 0x1017E, size: 0x8, addend: 0x0, symName: __ZNSt3__19basic_iosIcNS_11char_traitsIcEEE8setstateB7v160006Ej, symObjAddr: 0x954, symBinAddr: 0x100003E60, symSize: 0x2C }
  - { offsetInCU: 0x6D45, offset: 0x101B1, size: 0x8, addend: 0x0, symName: __ZNKSt3__18ios_base5widthB7v160006Ev, symObjAddr: 0x980, symBinAddr: 0x100003E8C, symSize: 0x18 }
  - { offsetInCU: 0x6D6C, offset: 0x101D8, size: 0x8, addend: 0x0, symName: __ZNSt3__115basic_streambufIcNS_11char_traitsIcEEE5sputnB7v160006EPKcl, symObjAddr: 0x998, symBinAddr: 0x100003EA4, symSize: 0x3C }
  - { offsetInCU: 0x6DAC, offset: 0x10218, size: 0x8, addend: 0x0, symName: __ZNSt3__112basic_stringIcNS_11char_traitsIcEENS_9allocatorIcEEEC1B7v160006Emc, symObjAddr: 0x9D4, symBinAddr: 0x100003EE0, symSize: 0x3C }
  - { offsetInCU: 0x6DF2, offset: 0x1025E, size: 0x8, addend: 0x0, symName: __ZNSt3__18ios_base5widthB7v160006El, symObjAddr: 0xA10, symBinAddr: 0x100003F1C, symSize: 0x2C }
  - { offsetInCU: 0x6E37, offset: 0x102A3, size: 0x8, addend: 0x0, symName: __ZNSt3__112basic_stringIcNS_11char_traitsIcEENS_9allocatorIcEEEC2B7v160006Emc, symObjAddr: 0xA3C, symBinAddr: 0x100003F48, symSize: 0x54 }
  - { offsetInCU: 0x6E7D, offset: 0x102E9, size: 0x8, addend: 0x0, symName: __ZNSt3__119ostreambuf_iteratorIcNS_11char_traitsIcEEEC2B7v160006ERNS_13basic_ostreamIcS2_EE, symObjAddr: 0xB98, symBinAddr: 0x100003F9C, symSize: 0x54 }
  - { offsetInCU: 0x6EB3, offset: 0x1031F, size: 0x8, addend: 0x0, symName: __ZNKSt3__19basic_iosIcNS_11char_traitsIcEEE5rdbufB7v160006Ev, symObjAddr: 0xBEC, symBinAddr: 0x100003FF0, symSize: 0x24 }
  - { offsetInCU: 0x6EDA, offset: 0x10346, size: 0x8, addend: 0x0, symName: __ZNKSt3__18ios_base5rdbufB7v160006Ev, symObjAddr: 0xC10, symBinAddr: 0x100004014, symSize: 0x18 }
  - { offsetInCU: 0x6EFE, offset: 0x1036A, size: 0x8, addend: 0x0, symName: __ZNSt3__111char_traitsIcE11eq_int_typeEii, symObjAddr: 0xC28, symBinAddr: 0x10000402C, symSize: 0x28 }
  - { offsetInCU: 0x6F2E, offset: 0x1039A, size: 0x8, addend: 0x0, symName: __ZNSt3__111char_traitsIcE3eofEv, symObjAddr: 0xC50, symBinAddr: 0x100004054, symSize: 0x8 }
  - { offsetInCU: 0x6F42, offset: 0x103AE, size: 0x8, addend: 0x0, symName: __ZNKSt3__19basic_iosIcNS_11char_traitsIcEEE5widenB7v160006Ec, symObjAddr: 0xC58, symBinAddr: 0x10000405C, symSize: 0x84 }
  - { offsetInCU: 0x6FAF, offset: 0x1041B, size: 0x8, addend: 0x0, symName: __ZNKSt3__15ctypeIcE5widenB7v160006Ec, symObjAddr: 0xD08, symBinAddr: 0x10000410C, symSize: 0x38 }
  - { offsetInCU: 0x6FE2, offset: 0x1044E, size: 0x8, addend: 0x0, symName: __ZNSt3__18ios_base8setstateB7v160006Ej, symObjAddr: 0xD40, symBinAddr: 0x100004144, symSize: 0x34 }
  - { offsetInCU: 0x26, offset: 0x104E1, size: 0x8, addend: 0x0, symName: __ZN5Solid7displayEv, symObjAddr: 0x0, symBinAddr: 0x100004178, symSize: 0x6C }
  - { offsetInCU: 0x4ABC, offset: 0x14F77, size: 0x8, addend: 0x0, symName: __ZN5Solid7displayEv, symObjAddr: 0x0, symBinAddr: 0x100004178, symSize: 0x6C }
  - { offsetInCU: 0x4AE3, offset: 0x14F9E, size: 0x8, addend: 0x0, symName: __ZN5Solid9collisionERS_, symObjAddr: 0x6C, symBinAddr: 0x1000041E4, symSize: 0xF0 }
  - { offsetInCU: 0x50EA, offset: 0x1A0C2, size: 0x8, addend: 0x0, symName: __ZNSt3__1neB7v160006IP6WeaponEEbRKNS_11__wrap_iterIT_EES7_, symObjAddr: 0x11C8, symBinAddr: 0x10000549C, symSize: 0x34 }
  - { offsetInCU: 0x512D, offset: 0x1A105, size: 0x8, addend: 0x0, symName: __ZNSt3__1eqB7v160006IP6WeaponEEbRKNS_11__wrap_iterIT_EES7_, symObjAddr: 0x13C4, symBinAddr: 0x100005698, symSize: 0x48 }
  - { offsetInCU: 0x5170, offset: 0x1A148, size: 0x8, addend: 0x0, symName: __ZNSt3__13maxB7v160006ImEERKT_S3_S3_, symObjAddr: 0x1CA8, symBinAddr: 0x100005E74, symSize: 0x2C }
  - { offsetInCU: 0x51B3, offset: 0x1A18B, size: 0x8, addend: 0x0, symName: __ZNSt3__13minB7v160006ImEERKT_S3_S3_, symObjAddr: 0x1CD4, symBinAddr: 0x100005EA0, symSize: 0x2C }
  - { offsetInCU: 0x5401, offset: 0x1A3D9, size: 0x8, addend: 0x0, symName: __ZNSt3__13minB7v160006ImNS_6__lessImmEEEERKT_S5_S5_T0_, symObjAddr: 0x1D6C, symBinAddr: 0x100005F2C, symSize: 0x54 }
  - { offsetInCU: 0x5496, offset: 0x1A46E, size: 0x8, addend: 0x0, symName: __ZNSt3__120__throw_length_errorB7v160006EPKc, symObjAddr: 0x1E48, symBinAddr: 0x100006008, symSize: 0x64 }
  - { offsetInCU: 0x54BF, offset: 0x1A497, size: 0x8, addend: 0x0, symName: __ZNSt3__13maxB7v160006ImNS_6__lessImmEEEERKT_S5_S5_T0_, symObjAddr: 0x1F8C, symBinAddr: 0x1000060EC, symSize: 0x54 }
  - { offsetInCU: 0x5519, offset: 0x1A4F1, size: 0x8, addend: 0x0, symName: __ZNSt3__119__allocate_at_leastB7v160006INS_9allocatorI4MathEEEENS_19__allocation_resultINS_16allocator_traitsIT_E7pointerEEERS6_m, symObjAddr: 0x20F0, symBinAddr: 0x100006250, symSize: 0x40 }
  - { offsetInCU: 0x555C, offset: 0x1A534, size: 0x8, addend: 0x0, symName: __ZNSt3__117__libcpp_allocateB7v160006Emm, symObjAddr: 0x2290, symBinAddr: 0x1000063D4, symSize: 0x28 }
  - { offsetInCU: 0x559A, offset: 0x1A572, size: 0x8, addend: 0x0, symName: __ZNSt3__121__libcpp_operator_newB7v160006IJmEEEPvDpT_, symObjAddr: 0x22B8, symBinAddr: 0x1000063FC, symSize: 0x24 }
  - { offsetInCU: 0x55D4, offset: 0x1A5AC, size: 0x8, addend: 0x0, symName: __ZNSt3__142__uninitialized_allocator_move_if_noexceptB7v160006INS_9allocatorI4MathEENS_16reverse_iteratorIPS2_EES6_S2_vEET1_RT_T0_SA_S7_, symObjAddr: 0x23F8, symBinAddr: 0x100006484, symSize: 0x78 }
  - { offsetInCU: 0x5652, offset: 0x1A62A, size: 0x8, addend: 0x0, symName: __ZNSt3__14swapB7v160006IP4MathEENS_9enable_ifIXaasr21is_move_constructibleIT_EE5valuesr18is_move_assignableIS4_EE5valueEvE4typeERS4_S7_, symObjAddr: 0x24BC, symBinAddr: 0x100006548, symSize: 0x3C }
  - { offsetInCU: 0x56A3, offset: 0x1A67B, size: 0x8, addend: 0x0, symName: __ZNSt3__125__debug_db_invalidate_allB7v160006INS_6vectorI4MathNS_9allocatorIS2_EEEEEEvPT_, symObjAddr: 0x25A4, symBinAddr: 0x100006630, symSize: 0x10 }
  - { offsetInCU: 0x56D4, offset: 0x1A6AC, size: 0x8, addend: 0x0, symName: __ZNSt3__14moveB7v160006INS_16reverse_iteratorIP4MathEES4_EET0_T_S6_S5_, symObjAddr: 0x25FC, symBinAddr: 0x100006640, symSize: 0x78 }
  - { offsetInCU: 0x572E, offset: 0x1A706, size: 0x8, addend: 0x0, symName: __ZNSt3__16__moveB7v160006INS_17_ClassicAlgPolicyENS_16reverse_iteratorIP4MathEES5_S5_EENS_4pairIT0_T2_EES7_T1_S8_, symObjAddr: 0x2674, symBinAddr: 0x1000066B8, symSize: 0x64 }
  - { offsetInCU: 0x579A, offset: 0x1A772, size: 0x8, addend: 0x0, symName: __ZNSt3__123__dispatch_copy_or_moveB7v160006INS_17_ClassicAlgPolicyENS_11__move_loopIS1_EENS_14__move_trivialENS_16reverse_iteratorIP4MathEES8_S8_EENS_4pairIT2_T4_EESA_T3_SB_, symObjAddr: 0x26D8, symBinAddr: 0x10000671C, symSize: 0x64 }
  - { offsetInCU: 0x5818, offset: 0x1A7F0, size: 0x8, addend: 0x0, symName: __ZNSt3__121__unwrap_and_dispatchB7v160006INS_10__overloadINS_11__move_loopINS_17_ClassicAlgPolicyEEENS_14__move_trivialEEENS_16reverse_iteratorIP4MathEESA_SA_Li0EEENS_4pairIT0_T2_EESC_T1_SD_, symObjAddr: 0x273C, symBinAddr: 0x100006780, symSize: 0x12C }
  - { offsetInCU: 0x58A9, offset: 0x1A881, size: 0x8, addend: 0x0, symName: __ZNSt3__114__unwrap_rangeB7v160006INS_16reverse_iteratorIP4MathEES4_EENS_4pairIT0_S6_EET_S8_, symObjAddr: 0x2868, symBinAddr: 0x1000068AC, symSize: 0x84 }
  - { offsetInCU: 0x5A25, offset: 0x1A9FD, size: 0x8, addend: 0x0, symName: __ZNSt3__113__unwrap_iterB7v160006INS_16reverse_iteratorIP4MathEENS_18__unwrap_iter_implIS4_Lb0EEELi0EEEDTclsrT0_8__unwrapclsr3stdE7declvalIT_EEEES8_, symObjAddr: 0x298C, symBinAddr: 0x1000069D0, symSize: 0x44 }
  - { offsetInCU: 0x5A6A, offset: 0x1AA42, size: 0x8, addend: 0x0, symName: __ZNSt3__19make_pairB7v160006INS_16reverse_iteratorIP4MathEES4_EENS_4pairINS_18__unwrap_ref_decayIT_E4typeENS6_IT0_E4typeEEEOS7_OSA_, symObjAddr: 0x29D0, symBinAddr: 0x100006A14, symSize: 0x38 }
  - { offsetInCU: 0x5ABA, offset: 0x1AA92, size: 0x8, addend: 0x0, symName: __ZNSt3__114__rewrap_rangeB7v160006INS_16reverse_iteratorIP4MathEES4_EET_S5_T0_, symObjAddr: 0x2A08, symBinAddr: 0x100006A4C, symSize: 0x5C }
  - { offsetInCU: 0x5B06, offset: 0x1AADE, size: 0x8, addend: 0x0, symName: __ZNSt3__113__rewrap_iterB7v160006INS_16reverse_iteratorIP4MathEES4_NS_18__unwrap_iter_implIS4_Lb0EEEEET_S7_T0_, symObjAddr: 0x2A64, symBinAddr: 0x100006AA8, symSize: 0x74 }
  - { offsetInCU: 0x5B5B, offset: 0x1AB33, size: 0x8, addend: 0x0, symName: __ZNSt3__1neB7v160006IP4MathS2_EEbRKNS_16reverse_iteratorIT_EERKNS3_IT0_EE, symObjAddr: 0x2AD8, symBinAddr: 0x100006B1C, symSize: 0x48 }
  - { offsetInCU: 0x5E8D, offset: 0x1AE65, size: 0x8, addend: 0x0, symName: __ZSt28__throw_bad_array_new_lengthB7v160006v, symObjAddr: 0x225C, symBinAddr: 0x1000063A0, symSize: 0x34 }
  - { offsetInCU: 0x611E, offset: 0x1B0F6, size: 0x8, addend: 0x0, symName: __ZNSt3__16vectorI4MathNS_9allocatorIS1_EEE26__swap_out_circular_bufferERNS_14__split_bufferIS1_RS3_EE, symObjAddr: 0x1AA8, symBinAddr: 0x100005CB4, symSize: 0x118 }
  - { offsetInCU: 0x86D5, offset: 0x1D6AD, size: 0x8, addend: 0x0, symName: __ZN6Player12handle_eventEPKhP9SDL_Event, symObjAddr: 0x0, symBinAddr: 0x1000042D4, symSize: 0x508 }
  - { offsetInCU: 0x8718, offset: 0x1D6F0, size: 0x8, addend: 0x0, symName: __Z4sqrtB7v160006IiENSt3__19enable_ifIXsr3std11is_integralIT_EE5valueEdE4typeES2_, symObjAddr: 0x508, symBinAddr: 0x1000047DC, symSize: 0x24 }
  - { offsetInCU: 0x8750, offset: 0x1D728, size: 0x8, addend: 0x0, symName: __Z4sqrtB7v160006f, symObjAddr: 0x52C, symBinAddr: 0x100004800, symSize: 0x18 }
  - { offsetInCU: 0x877F, offset: 0x1D757, size: 0x8, addend: 0x0, symName: __ZN6Player7displayEv, symObjAddr: 0x544, symBinAddr: 0x100004818, symSize: 0x950 }
  - { offsetInCU: 0x87A6, offset: 0x1D77E, size: 0x8, addend: 0x0, symName: __Z3absB7v160006d, symObjAddr: 0xED4, symBinAddr: 0x1000051A8, symSize: 0x18 }
  - { offsetInCU: 0x87D2, offset: 0x1D7AA, size: 0x8, addend: 0x0, symName: __ZN6Player4pickENSt3__16vectorI6WeaponNS0_9allocatorIS2_EEEE, symObjAddr: 0xEEC, symBinAddr: 0x1000051C0, symSize: 0x27C }
  - { offsetInCU: 0x88A2, offset: 0x1D87A, size: 0x8, addend: 0x0, symName: __ZNSt3__16vectorI6WeaponNS_9allocatorIS1_EEE5beginB7v160006Ev, symObjAddr: 0x1168, symBinAddr: 0x10000543C, symSize: 0x30 }
  - { offsetInCU: 0x88C9, offset: 0x1D8A1, size: 0x8, addend: 0x0, symName: __ZNSt3__16vectorI6WeaponNS_9allocatorIS1_EEE3endB7v160006Ev, symObjAddr: 0x1198, symBinAddr: 0x10000546C, symSize: 0x30 }
  - { offsetInCU: 0x88F1, offset: 0x1D8C9, size: 0x8, addend: 0x0, symName: __ZNKSt3__111__wrap_iterIP6WeaponEdeB7v160006Ev, symObjAddr: 0x11FC, symBinAddr: 0x1000054D0, symSize: 0x18 }
  - { offsetInCU: 0x8915, offset: 0x1D8ED, size: 0x8, addend: 0x0, symName: __ZN6WeaponC1ERKS_, symObjAddr: 0x1214, symBinAddr: 0x1000054E8, symSize: 0x34 }
  - { offsetInCU: 0x8947, offset: 0x1D91F, size: 0x8, addend: 0x0, symName: __ZNSt3__16vectorI4MathNS_9allocatorIS1_EEE9push_backB7v160006ERKS1_, symObjAddr: 0x1248, symBinAddr: 0x10000551C, symSize: 0x6C }
  - { offsetInCU: 0x897E, offset: 0x1D956, size: 0x8, addend: 0x0, symName: __ZN6WeaponD1Ev, symObjAddr: 0x12B4, symBinAddr: 0x100005588, symSize: 0x2C }
  - { offsetInCU: 0x89A8, offset: 0x1D980, size: 0x8, addend: 0x0, symName: __ZNSt3__111__wrap_iterIP6WeaponEppB7v160006Ev, symObjAddr: 0x12E0, symBinAddr: 0x1000055B4, symSize: 0x20 }
  - { offsetInCU: 0x89CB, offset: 0x1D9A3, size: 0x8, addend: 0x0, symName: __ZN6Player8attackedER6Fodder, symObjAddr: 0x1300, symBinAddr: 0x1000055D4, symSize: 0xAC }
  - { offsetInCU: 0x8A03, offset: 0x1D9DB, size: 0x8, addend: 0x0, symName: __ZN6Fodder6getatkEv, symObjAddr: 0x13AC, symBinAddr: 0x100005680, symSize: 0x18 }
  - { offsetInCU: 0x8A27, offset: 0x1D9FF, size: 0x8, addend: 0x0, symName: __ZNKSt3__111__wrap_iterIP6WeaponE4baseB7v160006Ev, symObjAddr: 0x140C, symBinAddr: 0x1000056E0, symSize: 0x18 }
  - { offsetInCU: 0x8A4B, offset: 0x1DA23, size: 0x8, addend: 0x0, symName: __ZN6WeaponC2ERKS_, symObjAddr: 0x1424, symBinAddr: 0x1000056F8, symSize: 0x60 }
  - { offsetInCU: 0x8A88, offset: 0x1DA60, size: 0x8, addend: 0x0, symName: __ZN5SolidC2ERKS_, symObjAddr: 0x1484, symBinAddr: 0x100005758, symSize: 0x64 }
  - { offsetInCU: 0x8AC5, offset: 0x1DA9D, size: 0x8, addend: 0x0, symName: __ZN6EntityC2ERKS_, symObjAddr: 0x14E8, symBinAddr: 0x1000057BC, symSize: 0x50 }
  - { offsetInCU: 0x8AF8, offset: 0x1DAD0, size: 0x8, addend: 0x0, symName: __ZN6WeaponD2Ev, symObjAddr: 0x1538, symBinAddr: 0x10000580C, symSize: 0x2C }
  - { offsetInCU: 0x8B22, offset: 0x1DAFA, size: 0x8, addend: 0x0, symName: __ZNSt3__16vectorI6WeaponNS_9allocatorIS1_EEE11__make_iterB7v160006EPS1_, symObjAddr: 0x1590, symBinAddr: 0x100005838, symSize: 0x34 }
  - { offsetInCU: 0x8B55, offset: 0x1DB2D, size: 0x8, addend: 0x0, symName: __ZNSt3__111__wrap_iterIP6WeaponEC1B7v160006EPKvS2_, symObjAddr: 0x15C4, symBinAddr: 0x10000586C, symSize: 0x3C }
  - { offsetInCU: 0x8B99, offset: 0x1DB71, size: 0x8, addend: 0x0, symName: __ZNSt3__111__wrap_iterIP6WeaponEC2B7v160006EPKvS2_, symObjAddr: 0x1600, symBinAddr: 0x1000058A8, symSize: 0x24 }
  - { offsetInCU: 0x8BDD, offset: 0x1DBB5, size: 0x8, addend: 0x0, symName: __ZNSt3__16vectorI4MathNS_9allocatorIS1_EEE9__end_capB7v160006Ev, symObjAddr: 0x1624, symBinAddr: 0x1000058CC, symSize: 0x28 }
  - { offsetInCU: 0x8C01, offset: 0x1DBD9, size: 0x8, addend: 0x0, symName: __ZNSt3__16vectorI4MathNS_9allocatorIS1_EEE22__construct_one_at_endB7v160006IJRKS1_EEEvDpOT_, symObjAddr: 0x164C, symBinAddr: 0x1000058F4, symSize: 0x90 }
  - { offsetInCU: 0x8C4D, offset: 0x1DC25, size: 0x8, addend: 0x0, symName: __ZNSt3__16vectorI4MathNS_9allocatorIS1_EEE21__push_back_slow_pathIRKS1_EEvOT_, symObjAddr: 0x16DC, symBinAddr: 0x100005984, symSize: 0xD8 }
  - { offsetInCU: 0x8CAB, offset: 0x1DC83, size: 0x8, addend: 0x0, symName: __ZNSt3__117__compressed_pairIP4MathNS_9allocatorIS1_EEE5firstB7v160006Ev, symObjAddr: 0x17B4, symBinAddr: 0x100005A5C, symSize: 0x24 }
  - { offsetInCU: 0x8CCF, offset: 0x1DCA7, size: 0x8, addend: 0x0, symName: __ZNSt3__122__compressed_pair_elemIP4MathLi0ELb0EE5__getB7v160006Ev, symObjAddr: 0x17D8, symBinAddr: 0x100005A80, symSize: 0x14 }
  - { offsetInCU: 0x8D0C, offset: 0x1DCE4, size: 0x8, addend: 0x0, symName: __ZNSt3__16vectorI4MathNS_9allocatorIS1_EEE21_ConstructTransactionC1B7v160006ERS4_m, symObjAddr: 0x17EC, symBinAddr: 0x100005A94, symSize: 0x3C }
  - { offsetInCU: 0x8D52, offset: 0x1DD2A, size: 0x8, addend: 0x0, symName: __ZNSt3__116allocator_traitsINS_9allocatorI4MathEEE9constructB7v160006IS2_JRKS2_EvEEvRS3_PT_DpOT0_, symObjAddr: 0x1828, symBinAddr: 0x100005AD0, symSize: 0x34 }
  - { offsetInCU: 0x8DA8, offset: 0x1DD80, size: 0x8, addend: 0x0, symName: __ZNSt3__16vectorI4MathNS_9allocatorIS1_EEE21_ConstructTransactionD1B7v160006Ev, symObjAddr: 0x1898, symBinAddr: 0x100005B04, symSize: 0x2C }
  - { offsetInCU: 0x8DD0, offset: 0x1DDA8, size: 0x8, addend: 0x0, symName: __ZNSt3__16vectorI4MathNS_9allocatorIS1_EEE21_ConstructTransactionC2B7v160006ERS4_m, symObjAddr: 0x18C4, symBinAddr: 0x100005B30, symSize: 0x44 }
  - { offsetInCU: 0x8E16, offset: 0x1DDEE, size: 0x8, addend: 0x0, symName: __ZNSt3__19allocatorI4MathE9constructB7v160006IS1_JRKS1_EEEvPT_DpOT0_, symObjAddr: 0x1908, symBinAddr: 0x100005B74, symSize: 0x28 }
  - { offsetInCU: 0x8E6A, offset: 0x1DE42, size: 0x8, addend: 0x0, symName: __ZNSt3__16vectorI4MathNS_9allocatorIS1_EEE21_ConstructTransactionD2B7v160006Ev, symObjAddr: 0x1968, symBinAddr: 0x100005B9C, symSize: 0x20 }
  - { offsetInCU: 0x8E91, offset: 0x1DE69, size: 0x8, addend: 0x0, symName: __ZNKSt3__16vectorI4MathNS_9allocatorIS1_EEE11__recommendB7v160006Em, symObjAddr: 0x1988, symBinAddr: 0x100005BBC, symSize: 0xB4 }
  - { offsetInCU: 0x8EE6, offset: 0x1DEBE, size: 0x8, addend: 0x0, symName: __ZNSt3__114__split_bufferI4MathRNS_9allocatorIS1_EEEC1EmmS4_, symObjAddr: 0x1A64, symBinAddr: 0x100005C70, symSize: 0x44 }
  - { offsetInCU: 0x8F3B, offset: 0x1DF13, size: 0x8, addend: 0x0, symName: __ZNSt3__114__split_bufferI4MathRNS_9allocatorIS1_EEED1Ev, symObjAddr: 0x1BC0, symBinAddr: 0x100005DCC, symSize: 0x2C }
  - { offsetInCU: 0x8F65, offset: 0x1DF3D, size: 0x8, addend: 0x0, symName: __ZNKSt3__16vectorI4MathNS_9allocatorIS1_EEE8max_sizeEv, symObjAddr: 0x1BEC, symBinAddr: 0x100005DF8, symSize: 0x60 }
  - { offsetInCU: 0x8F8D, offset: 0x1DF65, size: 0x8, addend: 0x0, symName: __ZNKSt3__16vectorI4MathNS_9allocatorIS1_EEE20__throw_length_errorB7v160006Ev, symObjAddr: 0x1C4C, symBinAddr: 0x100005E58, symSize: 0x1C }
  - { offsetInCU: 0x8FBB, offset: 0x1DF93, size: 0x8, addend: 0x0, symName: __ZNSt3__116allocator_traitsINS_9allocatorI4MathEEE8max_sizeB7v160006IS3_vEEmRKS3_, symObjAddr: 0x1D00, symBinAddr: 0x100005ECC, symSize: 0x24 }
  - { offsetInCU: 0x8FE8, offset: 0x1DFC0, size: 0x8, addend: 0x0, symName: __ZNKSt3__16vectorI4MathNS_9allocatorIS1_EEE7__allocB7v160006Ev, symObjAddr: 0x1D24, symBinAddr: 0x100005EF0, symSize: 0x28 }
  - { offsetInCU: 0x900C, offset: 0x1DFE4, size: 0x8, addend: 0x0, symName: __ZNSt3__114numeric_limitsIlE3maxB7v160006Ev, symObjAddr: 0x1D4C, symBinAddr: 0x100005F18, symSize: 0x14 }
  - { offsetInCU: 0x9034, offset: 0x1E00C, size: 0x8, addend: 0x0, symName: __ZNKSt3__16__lessImmEclB7v160006ERKmS3_, symObjAddr: 0x1DC0, symBinAddr: 0x100005F80, symSize: 0x34 }
  - { offsetInCU: 0x9074, offset: 0x1E04C, size: 0x8, addend: 0x0, symName: __ZNKSt3__19allocatorI4MathE8max_sizeB7v160006Ev, symObjAddr: 0x1DF4, symBinAddr: 0x100005FB4, symSize: 0x14 }
  - { offsetInCU: 0x9098, offset: 0x1E070, size: 0x8, addend: 0x0, symName: __ZNKSt3__117__compressed_pairIP4MathNS_9allocatorIS1_EEE6secondB7v160006Ev, symObjAddr: 0x1E08, symBinAddr: 0x100005FC8, symSize: 0x24 }
  - { offsetInCU: 0x90BC, offset: 0x1E094, size: 0x8, addend: 0x0, symName: __ZNKSt3__122__compressed_pair_elemINS_9allocatorI4MathEELi1ELb1EE5__getB7v160006Ev, symObjAddr: 0x1E2C, symBinAddr: 0x100005FEC, symSize: 0x14 }
  - { offsetInCU: 0x90E0, offset: 0x1E0B8, size: 0x8, addend: 0x0, symName: __ZNSt3__123__libcpp_numeric_limitsIlLb1EE3maxB7v160006Ev, symObjAddr: 0x1E40, symBinAddr: 0x100006000, symSize: 0x8 }
  - { offsetInCU: 0x90F4, offset: 0x1E0CC, size: 0x8, addend: 0x0, symName: __ZNSt12length_errorC1B7v160006EPKc, symObjAddr: 0x1EAC, symBinAddr: 0x10000606C, symSize: 0x34 }
  - { offsetInCU: 0x912A, offset: 0x1E102, size: 0x8, addend: 0x0, symName: __ZNSt12length_errorC2B7v160006EPKc, symObjAddr: 0x1EE0, symBinAddr: 0x1000060A0, symSize: 0x4C }
  - { offsetInCU: 0x9160, offset: 0x1E138, size: 0x8, addend: 0x0, symName: __ZNSt3__114__split_bufferI4MathRNS_9allocatorIS1_EEEC2EmmS4_, symObjAddr: 0x1FE0, symBinAddr: 0x100006140, symSize: 0xD4 }
  - { offsetInCU: 0x91D7, offset: 0x1E1AF, size: 0x8, addend: 0x0, symName: __ZNSt3__117__compressed_pairIP4MathRNS_9allocatorIS1_EEEC1B7v160006IDnS5_EEOT_OT0_, symObjAddr: 0x20B4, symBinAddr: 0x100006214, symSize: 0x3C }
  - { offsetInCU: 0x922D, offset: 0x1E205, size: 0x8, addend: 0x0, symName: __ZNSt3__114__split_bufferI4MathRNS_9allocatorIS1_EEE7__allocB7v160006Ev, symObjAddr: 0x2130, symBinAddr: 0x100006290, symSize: 0x28 }
  - { offsetInCU: 0x9251, offset: 0x1E229, size: 0x8, addend: 0x0, symName: __ZNSt3__114__split_bufferI4MathRNS_9allocatorIS1_EEE9__end_capB7v160006Ev, symObjAddr: 0x2158, symBinAddr: 0x1000062B8, symSize: 0x28 }
  - { offsetInCU: 0x9275, offset: 0x1E24D, size: 0x8, addend: 0x0, symName: __ZNSt3__117__compressed_pairIP4MathRNS_9allocatorIS1_EEEC2B7v160006IDnS5_EEOT_OT0_, symObjAddr: 0x2180, symBinAddr: 0x1000062E0, symSize: 0x48 }
  - { offsetInCU: 0x92CB, offset: 0x1E2A3, size: 0x8, addend: 0x0, symName: __ZNSt3__122__compressed_pair_elemIRNS_9allocatorI4MathEELi1ELb0EEC2B7v160006IS4_vEEOT_, symObjAddr: 0x21E4, symBinAddr: 0x100006328, symSize: 0x20 }
  - { offsetInCU: 0x930B, offset: 0x1E2E3, size: 0x8, addend: 0x0, symName: __ZNSt3__19allocatorI4MathE8allocateB7v160006Em, symObjAddr: 0x2204, symBinAddr: 0x100006348, symSize: 0x58 }
  - { offsetInCU: 0x933D, offset: 0x1E315, size: 0x8, addend: 0x0, symName: __ZNSt3__117__compressed_pairIP4MathRNS_9allocatorIS1_EEE6secondB7v160006Ev, symObjAddr: 0x22DC, symBinAddr: 0x100006420, symSize: 0x28 }
  - { offsetInCU: 0x9361, offset: 0x1E339, size: 0x8, addend: 0x0, symName: __ZNSt3__122__compressed_pair_elemIRNS_9allocatorI4MathEELi1ELb0EE5__getB7v160006Ev, symObjAddr: 0x2304, symBinAddr: 0x100006448, symSize: 0x18 }
  - { offsetInCU: 0x9385, offset: 0x1E35D, size: 0x8, addend: 0x0, symName: __ZNSt3__117__compressed_pairIP4MathRNS_9allocatorIS1_EEE5firstB7v160006Ev, symObjAddr: 0x231C, symBinAddr: 0x100006460, symSize: 0x24 }
  - { offsetInCU: 0x93A9, offset: 0x1E381, size: 0x8, addend: 0x0, symName: __ZNSt3__116reverse_iteratorIP4MathEC1B7v160006ES2_, symObjAddr: 0x2470, symBinAddr: 0x1000064FC, symSize: 0x34 }
  - { offsetInCU: 0x93DF, offset: 0x1E3B7, size: 0x8, addend: 0x0, symName: __ZNKSt3__116reverse_iteratorIP4MathE4baseB7v160006Ev, symObjAddr: 0x24A4, symBinAddr: 0x100006530, symSize: 0x18 }
  - { offsetInCU: 0x9403, offset: 0x1E3DB, size: 0x8, addend: 0x0, symName: __ZNKSt3__16vectorI4MathNS_9allocatorIS1_EEE14__annotate_newB7v160006Em, symObjAddr: 0x24F8, symBinAddr: 0x100006584, symSize: 0xAC }
  - { offsetInCU: 0x9459, offset: 0x1E431, size: 0x8, addend: 0x0, symName: __ZNKSt3__111__move_loopINS_17_ClassicAlgPolicyEEclB7v160006INS_16reverse_iteratorIP4MathEES7_S7_EENS_4pairIT_T1_EES9_T0_SA_, symObjAddr: 0x28EC, symBinAddr: 0x100006930, symSize: 0xA0 }
  - { offsetInCU: 0x94C7, offset: 0x1E49F, size: 0x8, addend: 0x0, symName: __ZNSt3__18_IterOpsINS_17_ClassicAlgPolicyEE11__iter_moveB7v160006IRNS_16reverse_iteratorIP4MathEEEENS_9enable_ifIXsr12is_referenceIDTdeclsr3stdE7declvalIRT_EEEEE5valueEDTclsr3stdE4movedeclsr3stdE7declvalISB_EEEEE4typeEOSA_, symObjAddr: 0x2B20, symBinAddr: 0x100006B64, symSize: 0x28 }
  - { offsetInCU: 0x94F2, offset: 0x1E4CA, size: 0x8, addend: 0x0, symName: __ZNKSt3__116reverse_iteratorIP4MathEdeB7v160006Ev, symObjAddr: 0x2B48, symBinAddr: 0x100006B8C, symSize: 0x28 }
  - { offsetInCU: 0x9524, offset: 0x1E4FC, size: 0x8, addend: 0x0, symName: __ZNSt3__116reverse_iteratorIP4MathEppB7v160006Ev, symObjAddr: 0x2B70, symBinAddr: 0x100006BB4, symSize: 0x20 }
  - { offsetInCU: 0x9548, offset: 0x1E520, size: 0x8, addend: 0x0, symName: __ZNSt3__18_IterOpsINS_17_ClassicAlgPolicyEE25__validate_iter_referenceB7v160006IRNS_16reverse_iteratorIP4MathEEEEvv, symObjAddr: 0x2B90, symBinAddr: 0x100006BD4, symSize: 0x4 }
  - { offsetInCU: 0x9565, offset: 0x1E53D, size: 0x8, addend: 0x0, symName: __ZNSt3__118__unwrap_iter_implINS_16reverse_iteratorIP4MathEELb0EE8__unwrapB7v160006ES4_, symObjAddr: 0x2B94, symBinAddr: 0x100006BD8, symSize: 0x24 }
  - { offsetInCU: 0x958C, offset: 0x1E564, size: 0x8, addend: 0x0, symName: __ZNSt3__14pairINS_16reverse_iteratorIP4MathEES4_EC1B7v160006IS4_S4_LPv0EEEOT_OT0_, symObjAddr: 0x2BB8, symBinAddr: 0x100006BFC, symSize: 0x3C }
  - { offsetInCU: 0x95E9, offset: 0x1E5C1, size: 0x8, addend: 0x0, symName: __ZNSt3__14pairINS_16reverse_iteratorIP4MathEES4_EC2B7v160006IS4_S4_LPv0EEEOT_OT0_, symObjAddr: 0x2BF4, symBinAddr: 0x100006C38, symSize: 0x34 }
  - { offsetInCU: 0x9646, offset: 0x1E61E, size: 0x8, addend: 0x0, symName: __ZNSt3__118__unwrap_iter_implINS_16reverse_iteratorIP4MathEELb0EE8__rewrapB7v160006ES4_S4_, symObjAddr: 0x2C28, symBinAddr: 0x100006C6C, symSize: 0x2C }
  - { offsetInCU: 0x9672, offset: 0x1E64A, size: 0x8, addend: 0x0, symName: __ZNSt3__116reverse_iteratorIP4MathEC2B7v160006ES2_, symObjAddr: 0x2C54, symBinAddr: 0x100006C98, symSize: 0x28 }
  - { offsetInCU: 0x96A8, offset: 0x1E680, size: 0x8, addend: 0x0, symName: __ZNSt3__114__split_bufferI4MathRNS_9allocatorIS1_EEED2Ev, symObjAddr: 0x2C7C, symBinAddr: 0x100006CC0, symSize: 0x8C }
  - { offsetInCU: 0x96D3, offset: 0x1E6AB, size: 0x8, addend: 0x0, symName: __ZNSt3__114__split_bufferI4MathRNS_9allocatorIS1_EEE5clearB7v160006Ev, symObjAddr: 0x2D08, symBinAddr: 0x100006D4C, symSize: 0x28 }
  - { offsetInCU: 0x96F7, offset: 0x1E6CF, size: 0x8, addend: 0x0, symName: __ZNKSt3__114__split_bufferI4MathRNS_9allocatorIS1_EEE8capacityB7v160006Ev, symObjAddr: 0x2D64, symBinAddr: 0x100006D74, symSize: 0x40 }
  - { offsetInCU: 0x971B, offset: 0x1E6F3, size: 0x8, addend: 0x0, symName: __ZNSt3__114__split_bufferI4MathRNS_9allocatorIS1_EEE17__destruct_at_endB7v160006EPS1_, symObjAddr: 0x2DA4, symBinAddr: 0x100006DB4, symSize: 0x2C }
  - { offsetInCU: 0x974C, offset: 0x1E724, size: 0x8, addend: 0x0, symName: __ZNSt3__114__split_bufferI4MathRNS_9allocatorIS1_EEE17__destruct_at_endB7v160006EPS1_NS_17integral_constantIbLb0EEE, symObjAddr: 0x2DD0, symBinAddr: 0x100006DE0, symSize: 0x80 }
  - { offsetInCU: 0x978C, offset: 0x1E764, size: 0x8, addend: 0x0, symName: __ZNKSt3__114__split_bufferI4MathRNS_9allocatorIS1_EEE9__end_capB7v160006Ev, symObjAddr: 0x2F4C, symBinAddr: 0x100006E60, symSize: 0x28 }
  - { offsetInCU: 0x97B0, offset: 0x1E788, size: 0x8, addend: 0x0, symName: __ZNKSt3__117__compressed_pairIP4MathRNS_9allocatorIS1_EEE5firstB7v160006Ev, symObjAddr: 0x2F74, symBinAddr: 0x100006E88, symSize: 0x24 }
  - { offsetInCU: 0x26, offset: 0x1E853, size: 0x8, addend: 0x0, symName: __ZN6WeaponC2EP12SDL_Rendererff4Math, symObjAddr: 0x0, symBinAddr: 0x100006EAC, symSize: 0x1EC }
  - { offsetInCU: 0x4AC8, offset: 0x232F5, size: 0x8, addend: 0x0, symName: __ZN6WeaponC2EP12SDL_Rendererff4Math, symObjAddr: 0x0, symBinAddr: 0x100006EAC, symSize: 0x1EC }
  - { offsetInCU: 0x4B2A, offset: 0x23357, size: 0x8, addend: 0x0, symName: __ZN5SolidC2Ev, symObjAddr: 0x200, symBinAddr: 0x1000070AC, symSize: 0xA0 }
  - { offsetInCU: 0x4B52, offset: 0x2337F, size: 0x8, addend: 0x0, symName: __ZN6WeaponC1EP12SDL_Rendererff4Math, symObjAddr: 0x2CC, symBinAddr: 0x10000714C, symSize: 0x4C }
  - { offsetInCU: 0x4BB4, offset: 0x233E1, size: 0x8, addend: 0x0, symName: __ZN6Weapon7displayEv, symObjAddr: 0x318, symBinAddr: 0x100007198, symSize: 0x84 }
  - { offsetInCU: 0x26, offset: 0x23438, size: 0x8, addend: 0x0, symName: __ZN3Mob10set_sourceENSt3__112basic_stringIcNS0_11char_traitsIcEENS0_9allocatorIcEEEES6_S6_, symObjAddr: 0x0, symBinAddr: 0x10000721C, symSize: 0xBC }
  - { offsetInCU: 0x4BF1, offset: 0x28003, size: 0x8, addend: 0x0, symName: __ZN3Mob10set_sourceENSt3__112basic_stringIcNS0_11char_traitsIcEENS0_9allocatorIcEEEES6_S6_, symObjAddr: 0x0, symBinAddr: 0x10000721C, symSize: 0xBC }
  - { offsetInCU: 0x4C45, offset: 0x28057, size: 0x8, addend: 0x0, symName: __ZN3Mob9collisionER5Solid, symObjAddr: 0xE0, symBinAddr: 0x1000072D8, symSize: 0x24C }
...
